

Microchip MPLAB XC8 Assembler V2.50 build 20240725155939 
                                                                                               Thu Jan 02 14:51:08 2025

Microchip MPLAB XC8 C Compiler v2.50 (Free license) build 20240725155939 Og1 
     1                           	processor	18F4520
     2                           	fnconf	rparam,??,?,0
     3                           	pagewidth 120
     4                           	opt	flic
     5                           	psect	idataBANK0,global,class=CODE,space=0,delta=1,noexec
     6                           	psect	cinit,global,reloc=2,class=CODE,space=0,delta=1
     7                           	psect	bssCOMRAM,global,class=COMRAM,space=1,delta=1,lowdata,noexec
     8                           	psect	bssBANK0,global,class=BANK0,space=1,delta=1,lowdata,noexec
     9                           	psect	dataBANK0,global,class=BANK0,space=1,delta=1,lowdata,noexec
    10                           	psect	bssBANK1,global,class=BANK1,space=1,delta=1,lowdata,noexec
    11                           	psect	cstackBANK0,global,class=BANK0,space=1,delta=1,lowdata,noexec
    12                           	psect	cstackCOMRAM,global,class=COMRAM,space=1,delta=1,lowdata,noexec
    13                           	psect	text0,global,reloc=2,class=CODE,space=0,delta=1
    14                           	psect	text1,global,reloc=2,class=CODE,space=0,delta=1
    15                           	psect	text2,global,reloc=2,class=CODE,space=0,delta=1,group=1
    16                           	psect	text3,global,reloc=2,class=CODE,space=0,delta=1,group=1
    17                           	psect	text4,global,reloc=2,class=CODE,space=0,delta=1,group=1
    18                           	psect	text5,global,reloc=2,class=CODE,space=0,delta=1,group=1
    19                           	psect	text6,global,reloc=2,class=CODE,space=0,delta=1,group=1
    20                           	psect	text7,global,reloc=2,class=CODE,space=0,delta=1
    21                           	psect	text8,global,reloc=2,class=CODE,space=0,delta=1
    22                           	psect	text9,global,reloc=2,class=CODE,space=0,delta=1
    23                           	psect	text10,global,reloc=2,class=CODE,space=0,delta=1,group=2
    24                           	psect	text11,global,reloc=2,class=CODE,space=0,delta=1
    25                           	psect	intcodelo,global,reloc=2,class=CODE,space=0,delta=1
    26                           	psect	text13,global,reloc=2,class=CODE,space=0,delta=1
    27                           	psect	text14,global,reloc=2,class=CODE,space=0,delta=1
    28                           	psect	intcode,global,reloc=2,class=CODE,space=0,delta=1
    29                           	psect	intcode_body,global,reloc=2,class=CODE,space=0,delta=1
    30                           	psect	text16,global,reloc=2,class=CODE,space=0,delta=1
    31                           	psect	text17,global,reloc=2,class=CODE,space=0,delta=1
    32                           	psect	smallconst,global,reloc=2,class=SMALLCONST,space=0,delta=1,noexec
    33                           	psect	intsave_regs,global,class=BIGRAM,space=1,delta=1,noexec
    34                           	psect	rparam,global,class=COMRAM,space=1,delta=1,noexec
    35                           	psect	temp,global,ovrld,common,class=COMRAM,space=1,delta=1,lowdata
    36                           	psect	idloc,global,abs,ovrld,class=IDLOC,space=5,delta=1,noexec
    37                           	psect	config,global,abs,ovrld,class=CONFIG,space=4,delta=1,noexec
    38   000000                     
    39                           ; Generated 25/07/2024 GMT
    40                           ; 
    41                           ; Copyright © 2024, Microchip Technology Inc. and its subsidiaries ("Microchip")
    42                           ; All rights reserved.
    43                           ; 
    44                           ; This software is developed by Microchip Technology Inc. and its subsidiaries ("Microch
      +                          ip").
    45                           ; 
    46                           ; Redistribution and use in source and binary forms, with or without modification, are
    47                           ; permitted provided that the following conditions are met:
    48                           ; 
    49                           ;     1. Redistributions of source code must retain the above copyright notice, this lis
      +                          t of
    50                           ;        conditions and the following disclaimer.
    51                           ; 
    52                           ;     2. Redistributions in binary form must reproduce the above copyright notice, this 
      +                          list
    53                           ;        of conditions and the following disclaimer in the documentation and/or other
    54                           ;        materials provided with the distribution. Publication is not required when
    55                           ;        this file is used in an embedded application.
    56                           ; 
    57                           ;     3. Microchip's name may not be used to endorse or promote products derived from th
      +                          is
    58                           ;        software without specific prior written permission.
    59                           ; 
    60                           ; THIS SOFTWARE IS PROVIDED BY MICROCHIP "AS IS" AND ANY EXPRESS OR IMPLIED WARRANTIES,
    61                           ; INCLUDING, BUT NOT LIMITED TO, THE IMPLIED WARRANTIES OF MERCHANTABILITY AND FITNESS F
      +                          OR
    62                           ; PURPOSE ARE DISCLAIMED.  IN NO EVENT SHALL MICROCHIP BE LIABLE FOR ANY DIRECT, INDIREC
      +                          T,
    63                           ; INCIDENTAL, SPECIAL, EXEMPLARY, OR CONSEQUENTIAL DAMAGES (INCLUDING BUT NOT LIMITED TO
    64                           ; PROCUREMENT OF SUBSTITUTE GOODS OR SERVICES; LOSS OF USE, DATA OR PROFITS; OR BUSINESS
    65                           ; INTERRUPTION) HOWSOEVER CAUSED AND ON ANY THEORY OF LIABILITY, WHETHER IN CONTRACT, ST
      +                          RICT
    66                           ; LIABILITY, OR TORT (INCLUDING NEGLIGENCE OR OTHERWISE) ARISING IN ANY WAY OUT OF THE U
      +                          SE OF
    67                           ; THIS SOFTWARE, EVEN IF ADVISED OF THE POSSIBILITY OF SUCH DAMAGE.
    68                           ; 
    69                           ; 
    70                           ; Code-generator required, PIC18F4520 Definitions
    71                           ; 
    72                           ; SFR Addresses
    73   000FE0                     bsr             equ	4064
    74   000FE9                     fsr0            equ	4073
    75   000FEA                     fsr0h           equ	4074
    76   000FE9                     fsr0l           equ	4073
    77   000FE1                     fsr1            equ	4065
    78   000FE2                     fsr1h           equ	4066
    79   000FE1                     fsr1l           equ	4065
    80   000FD9                     fsr2            equ	4057
    81   000FDA                     fsr2h           equ	4058
    82   000FD9                     fsr2l           equ	4057
    83   000FEF                     indf0           equ	4079
    84   000FE7                     indf1           equ	4071
    85   000FDF                     indf2           equ	4063
    86   000FF2                     intcon          equ	4082
    87   000000                     nvmcon          equ	0
    88   000FF9                     pcl             equ	4089
    89   000FFA                     pclath          equ	4090
    90   000FFB                     pclatu          equ	4091
    91   000FEB                     plusw0          equ	4075
    92   000FE3                     plusw1          equ	4067
    93   000FDB                     plusw2          equ	4059
    94   000FED                     postdec0        equ	4077
    95   000FE5                     postdec1        equ	4069
    96   000FDD                     postdec2        equ	4061
    97   000FEE                     postinc0        equ	4078
    98   000FE6                     postinc1        equ	4070
    99   000FDE                     postinc2        equ	4062
   100   000FEC                     preinc0         equ	4076
   101   000FE4                     preinc1         equ	4068
   102   000FDC                     preinc2         equ	4060
   103   000FF3                     prod            equ	4083
   104   000FF4                     prodh           equ	4084
   105   000FF3                     prodl           equ	4083
   106   000FD8                     status          equ	4056
   107   000FF5                     tablat          equ	4085
   108   000FF6                     tblptr          equ	4086
   109   000FF7                     tblptrh         equ	4087
   110   000FF6                     tblptrl         equ	4086
   111   000FF8                     tblptru         equ	4088
   112   000FFD                     tosl            equ	4093
   113   000FE8                     wreg            equ	4072
   114   000F80                     PORTA           equ	3968	;# 
   115   000F81                     PORTB           equ	3969	;# 
   116   000F82                     PORTC           equ	3970	;# 
   117   000F83                     PORTD           equ	3971	;# 
   118   000F84                     PORTE           equ	3972	;# 
   119   000F89                     LATA            equ	3977	;# 
   120   000F8A                     LATB            equ	3978	;# 
   121   000F8B                     LATC            equ	3979	;# 
   122   000F8C                     LATD            equ	3980	;# 
   123   000F8D                     LATE            equ	3981	;# 
   124   000F92                     TRISA           equ	3986	;# 
   125   000F92                     DDRA            equ	3986	;# 
   126   000F93                     TRISB           equ	3987	;# 
   127   000F93                     DDRB            equ	3987	;# 
   128   000F94                     TRISC           equ	3988	;# 
   129   000F94                     DDRC            equ	3988	;# 
   130   000F95                     TRISD           equ	3989	;# 
   131   000F95                     DDRD            equ	3989	;# 
   132   000F96                     TRISE           equ	3990	;# 
   133   000F96                     DDRE            equ	3990	;# 
   134   000F9B                     OSCTUNE         equ	3995	;# 
   135   000F9D                     PIE1            equ	3997	;# 
   136   000F9E                     PIR1            equ	3998	;# 
   137   000F9F                     IPR1            equ	3999	;# 
   138   000FA0                     PIE2            equ	4000	;# 
   139   000FA1                     PIR2            equ	4001	;# 
   140   000FA2                     IPR2            equ	4002	;# 
   141   000FA6                     EECON1          equ	4006	;# 
   142   000FA7                     EECON2          equ	4007	;# 
   143   000FA8                     EEDATA          equ	4008	;# 
   144   000FA9                     EEADR           equ	4009	;# 
   145   000FAB                     RCSTA           equ	4011	;# 
   146   000FAB                     RCSTA1          equ	4011	;# 
   147   000FAC                     TXSTA           equ	4012	;# 
   148   000FAC                     TXSTA1          equ	4012	;# 
   149   000FAD                     TXREG           equ	4013	;# 
   150   000FAD                     TXREG1          equ	4013	;# 
   151   000FAE                     RCREG           equ	4014	;# 
   152   000FAE                     RCREG1          equ	4014	;# 
   153   000FAF                     SPBRG           equ	4015	;# 
   154   000FAF                     SPBRG1          equ	4015	;# 
   155   000FB0                     SPBRGH          equ	4016	;# 
   156   000FB1                     T3CON           equ	4017	;# 
   157   000FB2                     TMR3            equ	4018	;# 
   158   000FB2                     TMR3L           equ	4018	;# 
   159   000FB3                     TMR3H           equ	4019	;# 
   160   000FB4                     CMCON           equ	4020	;# 
   161   000FB5                     CVRCON          equ	4021	;# 
   162   000FB6                     ECCP1AS         equ	4022	;# 
   163   000FB6                     ECCPAS          equ	4022	;# 
   164   000FB7                     PWM1CON         equ	4023	;# 
   165   000FB7                     ECCP1DEL        equ	4023	;# 
   166   000FB8                     BAUDCON         equ	4024	;# 
   167   000FB8                     BAUDCTL         equ	4024	;# 
   168   000FBA                     CCP2CON         equ	4026	;# 
   169   000FBB                     CCPR2           equ	4027	;# 
   170   000FBB                     CCPR2L          equ	4027	;# 
   171   000FBC                     CCPR2H          equ	4028	;# 
   172   000FBD                     CCP1CON         equ	4029	;# 
   173   000FBE                     CCPR1           equ	4030	;# 
   174   000FBE                     CCPR1L          equ	4030	;# 
   175   000FBF                     CCPR1H          equ	4031	;# 
   176   000FC0                     ADCON2          equ	4032	;# 
   177   000FC1                     ADCON1          equ	4033	;# 
   178   000FC2                     ADCON0          equ	4034	;# 
   179   000FC3                     ADRES           equ	4035	;# 
   180   000FC3                     ADRESL          equ	4035	;# 
   181   000FC4                     ADRESH          equ	4036	;# 
   182   000FC5                     SSPCON2         equ	4037	;# 
   183   000FC6                     SSPCON1         equ	4038	;# 
   184   000FC7                     SSPSTAT         equ	4039	;# 
   185   000FC8                     SSPADD          equ	4040	;# 
   186   000FC9                     SSPBUF          equ	4041	;# 
   187   000FCA                     T2CON           equ	4042	;# 
   188   000FCB                     PR2             equ	4043	;# 
   189   000FCB                     MEMCON          equ	4043	;# 
   190   000FCC                     TMR2            equ	4044	;# 
   191   000FCD                     T1CON           equ	4045	;# 
   192   000FCE                     TMR1            equ	4046	;# 
   193   000FCE                     TMR1L           equ	4046	;# 
   194   000FCF                     TMR1H           equ	4047	;# 
   195   000FD0                     RCON            equ	4048	;# 
   196   000FD1                     WDTCON          equ	4049	;# 
   197   000FD2                     HLVDCON         equ	4050	;# 
   198   000FD2                     LVDCON          equ	4050	;# 
   199   000FD3                     OSCCON          equ	4051	;# 
   200   000FD5                     T0CON           equ	4053	;# 
   201   000FD6                     TMR0            equ	4054	;# 
   202   000FD6                     TMR0L           equ	4054	;# 
   203   000FD7                     TMR0H           equ	4055	;# 
   204   000FD8                     STATUS          equ	4056	;# 
   205   000FD9                     FSR2            equ	4057	;# 
   206   000FD9                     FSR2L           equ	4057	;# 
   207   000FDA                     FSR2H           equ	4058	;# 
   208   000FDB                     PLUSW2          equ	4059	;# 
   209   000FDC                     PREINC2         equ	4060	;# 
   210   000FDD                     POSTDEC2        equ	4061	;# 
   211   000FDE                     POSTINC2        equ	4062	;# 
   212   000FDF                     INDF2           equ	4063	;# 
   213   000FE0                     BSR             equ	4064	;# 
   214   000FE1                     FSR1            equ	4065	;# 
   215   000FE1                     FSR1L           equ	4065	;# 
   216   000FE2                     FSR1H           equ	4066	;# 
   217   000FE3                     PLUSW1          equ	4067	;# 
   218   000FE4                     PREINC1         equ	4068	;# 
   219   000FE5                     POSTDEC1        equ	4069	;# 
   220   000FE6                     POSTINC1        equ	4070	;# 
   221   000FE7                     INDF1           equ	4071	;# 
   222   000FE8                     WREG            equ	4072	;# 
   223   000FE9                     FSR0            equ	4073	;# 
   224   000FE9                     FSR0L           equ	4073	;# 
   225   000FEA                     FSR0H           equ	4074	;# 
   226   000FEB                     PLUSW0          equ	4075	;# 
   227   000FEC                     PREINC0         equ	4076	;# 
   228   000FED                     POSTDEC0        equ	4077	;# 
   229   000FEE                     POSTINC0        equ	4078	;# 
   230   000FEF                     INDF0           equ	4079	;# 
   231   000FF0                     INTCON3         equ	4080	;# 
   232   000FF1                     INTCON2         equ	4081	;# 
   233   000FF2                     INTCON          equ	4082	;# 
   234   000FF3                     PROD            equ	4083	;# 
   235   000FF3                     PRODL           equ	4083	;# 
   236   000FF4                     PRODH           equ	4084	;# 
   237   000FF5                     TABLAT          equ	4085	;# 
   238   000FF6                     TBLPTR          equ	4086	;# 
   239   000FF6                     TBLPTRL         equ	4086	;# 
   240   000FF7                     TBLPTRH         equ	4087	;# 
   241   000FF8                     TBLPTRU         equ	4088	;# 
   242   000FF9                     PCLAT           equ	4089	;# 
   243   000FF9                     PC              equ	4089	;# 
   244   000FF9                     PCL             equ	4089	;# 
   245   000FFA                     PCLATH          equ	4090	;# 
   246   000FFB                     PCLATU          equ	4091	;# 
   247   000FFC                     STKPTR          equ	4092	;# 
   248   000FFD                     TOS             equ	4093	;# 
   249   000FFD                     TOSL            equ	4093	;# 
   250   000FFE                     TOSH            equ	4094	;# 
   251   000FFF                     TOSU            equ	4095	;# 
   252                           
   253                           	psect	idataBANK0
   254   001B6E                     __pidataBANK0:
   255                           	callstack 0
   256                           
   257                           ;initializer for _mode
   258   001B6E  0001               	dw	1
   259   007D5C                     _CREN           set	32092
   260   007CF5                     _RCIF           set	31989
   261   000F8B                     _LATC           set	3979
   262   000F89                     _LATA           set	3977
   263   000F94                     _TRISC          set	3988
   264   000F93                     _TRISB          set	3987
   265   000F92                     _TRISA          set	3986
   266   000F94                     _TRISCbits      set	3988
   267   000F92                     _TRISAbits      set	3986
   268   000FC3                     _ADRESL         set	4035
   269   000FC4                     _ADRESH         set	4036
   270   000FBE                     _CCPR1L         set	4030
   271   000F9F                     _IPR1bits       set	3999
   272   000FAF                     _SPBRG          set	4015
   273   000FB8                     _BAUDCONbits    set	4024
   274   000FD0                     _RCONbits       set	4048
   275   000F9E                     _PIR1bits       set	3998
   276   000F9D                     _PIE1bits       set	3997
   277   000FCB                     _PR2            set	4043
   278   000FBD                     _CCP1CONbits    set	4029
   279   000FCA                     _T2CONbits      set	4042
   280   000FC0                     _ADCON2bits     set	4032
   281   000FC2                     _ADCON0bits     set	4034
   282   000FC1                     _ADCON1bits     set	4033
   283   000FD3                     _OSCCONbits     set	4051
   284   000FAB                     _RCSTAbits      set	4011
   285   000FAE                     _RCREG          set	4014
   286   000FAD                     _TXREG          set	4013
   287   000FAC                     _TXSTAbits      set	4012
   288   000FF2                     _INTCONbits     set	4082
   289                           
   290                           ; #config settings
   291                           
   292                           	psect	cinit
   293   001B08                     __pcinit:
   294                           	callstack 0
   295   001B08                     start_initialization:
   296                           	callstack 0
   297   001B08                     __initialization:
   298                           	callstack 0
   299                           
   300                           ; Initialize objects allocated to BANK0 (2 bytes)
   301                           ; load TBLPTR registers with __pidataBANK0
   302   001B08  0E6E               	movlw	low __pidataBANK0
   303   001B0A  6EF6               	movwf	tblptrl,c
   304   001B0C  0E1B               	movlw	high __pidataBANK0
   305   001B0E  6EF7               	movwf	tblptrh,c
   306   001B10  0E00               	movlw	low (__pidataBANK0 shr (0+16))
   307   001B12  6EF8               	movwf	tblptru,c
   308   001B14  0009               	tblrd		*+	;fetch initializer
   309   001B16  CFF5 F0FA          	movff	tablat,__pdataBANK0
   310   001B1A  0009               	tblrd		*+	;fetch initializer
   311   001B1C  CFF5 F0FB          	movff	tablat,__pdataBANK0+1
   312                           
   313                           ; Clear objects allocated to BANK1 (100 bytes)
   314   001B20  EE01  F000         	lfsr	0,__pbssBANK1
   315   001B24  0E64               	movlw	100
   316   001B26                     clear_0:
   317   001B26  6AEE               	clrf	postinc0,c
   318   001B28  06E8               	decf	wreg,f,c
   319   001B2A  E1FD               	bnz	clear_0
   320                           
   321                           ; Clear objects allocated to BANK0 (2 bytes)
   322   001B2C  0100               	movlb	0
   323   001B2E  6BF9               	clrf	(__pbssBANK0+1)& (0+255),b
   324   001B30  6BF8               	clrf	__pbssBANK0& (0+255),b
   325                           
   326                           ; Clear objects allocated to COMRAM (2 bytes)
   327   001B32  6A70               	clrf	(__pbssCOMRAM+1)& (0+255),c
   328   001B34  6A6F               	clrf	__pbssCOMRAM& (0+255),c
   329   001B36                     end_of_initialization:
   330                           	callstack 0
   331   001B36                     __end_of__initialization:
   332                           	callstack 0
   333   001B36  9071               	bcf	int$flags,0,c	;clear compiler interrupt flag (level 1)
   334   001B38  9271               	bcf	int$flags,1,c	;clear compiler interrupt flag (level 2)
   335   001B3A  0100               	movlb	0
   336   001B3C  EFFB  F00A         	goto	_main	;jump to C main() function
   337                           
   338                           	psect	bssCOMRAM
   339   00006F                     __pbssCOMRAM:
   340                           	callstack 0
   341   00006F                     _buffer_size:
   342                           	callstack 0
   343   00006F                     	ds	2
   344                           
   345                           	psect	bssBANK0
   346   0000F8                     __pbssBANK0:
   347                           	callstack 0
   348   0000F8                     _current_servo_angle:
   349                           	callstack 0
   350   0000F8                     	ds	2
   351                           
   352                           	psect	dataBANK0
   353   0000FA                     __pdataBANK0:
   354                           	callstack 0
   355   0000FA                     _mode:
   356                           	callstack 0
   357   0000FA                     	ds	2
   358                           
   359                           	psect	bssBANK1
   360   000100                     __pbssBANK1:
   361                           	callstack 0
   362   000100                     _buffer:
   363                           	callstack 0
   364   000100                     	ds	100
   365                           
   366                           	psect	cstackBANK0
   367   000080                     __pcstackBANK0:
   368                           	callstack 0
   369   000080                     _set_servo_angle$1584:
   370                           	callstack 0
   371                           
   372                           ; 4 bytes @ 0x0
   373   000080                     	ds	4
   374   000084                     _set_servo_angle$1585:
   375                           	callstack 0
   376                           
   377                           ; 4 bytes @ 0x4
   378   000084                     	ds	4
   379   000088                     set_servo_angle@target:
   380                           	callstack 0
   381                           
   382                           ; 2 bytes @ 0x8
   383   000088                     	ds	2
   384   00008A                     set_servo_angle@current:
   385                           	callstack 0
   386                           
   387                           ; 2 bytes @ 0xA
   388   00008A                     	ds	2
   389   00008C                     main@str:
   390                           	callstack 0
   391                           
   392                           ; 100 bytes @ 0xC
   393   00008C                     	ds	100
   394   0000F0                     main@x:
   395                           	callstack 0
   396                           
   397                           ; 2 bytes @ 0x70
   398   0000F0                     	ds	2
   399   0000F2                     main@x_926:
   400                           	callstack 0
   401                           
   402                           ; 2 bytes @ 0x72
   403   0000F2                     	ds	2
   404   0000F4                     main@x_927:
   405                           	callstack 0
   406                           
   407                           ; 2 bytes @ 0x74
   408   0000F4                     	ds	2
   409   0000F6                     main@x_928:
   410                           	callstack 0
   411                           
   412                           ; 2 bytes @ 0x76
   413   0000F6                     	ds	2
   414                           
   415                           	psect	cstackCOMRAM
   416   000001                     __pcstackCOMRAM:
   417                           	callstack 0
   418   000001                     variable_register_changed@value:
   419                           	callstack 0
   420   000001                     
   421                           ; 1 bytes @ 0x0
   422   000001                     	ds	2
   423   000003                     ??_H_ISR:
   424                           
   425                           ; 1 bytes @ 0x2
   426   000003                     	ds	2
   427   000005                     H_ISR@value:
   428                           	callstack 0
   429                           
   430                           ; 2 bytes @ 0x4
   431   000005                     	ds	2
   432   000007                     putch@data:
   433                           	callstack 0
   434   000007                     
   435                           ; 1 bytes @ 0x6
   436   000007                     	ds	1
   437   000008                     ??_MyusartRead:
   438                           
   439                           ; 1 bytes @ 0x7
   440   000008                     	ds	1
   441   000009                     MyusartRead@data:
   442                           	callstack 0
   443                           
   444                           ; 1 bytes @ 0x8
   445   000009                     	ds	1
   446   00000A                     ??_Lo_ISR:
   447                           
   448                           ; 1 bytes @ 0x9
   449   00000A                     	ds	5
   450   00000F                     ?___xxtofl:
   451                           	callstack 0
   452   00000F                     keyboard_input@str:
   453                           	callstack 0
   454   00000F                     strcpy@dest:
   455                           	callstack 0
   456   00000F                     ClearBuffer@i:
   457                           	callstack 0
   458   00000F                     ___xxtofl@val:
   459                           	callstack 0
   460   00000F                     
   461                           ; 1 bytes @ 0xE
   462   00000F                     	ds	1
   463   000010                     strcpy@src:
   464                           	callstack 0
   465   000010                     
   466                           ; 1 bytes @ 0xF
   467   000010                     	ds	2
   468   000012                     strcpy@d:
   469                           	callstack 0
   470   000012                     
   471                           ; 1 bytes @ 0x11
   472   000012                     	ds	1
   473   000013                     ?_GetString:
   474                           	callstack 0
   475   000013                     GetString@str:
   476                           	callstack 0
   477   000013                     ??___xxtofl:
   478                           
   479                           ; 1 bytes @ 0x12
   480   000013                     	ds	2
   481   000015                     
   482                           ; 1 bytes @ 0x14
   483   000015                     	ds	2
   484   000017                     ___xxtofl@sign:
   485                           	callstack 0
   486                           
   487                           ; 1 bytes @ 0x16
   488   000017                     	ds	1
   489   000018                     ___xxtofl@exp:
   490                           	callstack 0
   491                           
   492                           ; 1 bytes @ 0x17
   493   000018                     	ds	1
   494   000019                     ___xxtofl@arg:
   495                           	callstack 0
   496                           
   497                           ; 4 bytes @ 0x18
   498   000019                     	ds	4
   499   00001D                     ?___fldiv:
   500                           	callstack 0
   501   00001D                     ___fldiv@b:
   502                           	callstack 0
   503                           
   504                           ; 4 bytes @ 0x1C
   505   00001D                     	ds	4
   506   000021                     ___fldiv@a:
   507                           	callstack 0
   508                           
   509                           ; 4 bytes @ 0x20
   510   000021                     	ds	4
   511   000025                     ??___fldiv:
   512                           
   513                           ; 1 bytes @ 0x24
   514   000025                     	ds	4
   515   000029                     ___fldiv@rem:
   516                           	callstack 0
   517                           
   518                           ; 4 bytes @ 0x28
   519   000029                     	ds	4
   520   00002D                     ___fldiv@sign:
   521                           	callstack 0
   522                           
   523                           ; 1 bytes @ 0x2C
   524   00002D                     	ds	1
   525   00002E                     ___fldiv@new_exp:
   526                           	callstack 0
   527                           
   528                           ; 2 bytes @ 0x2D
   529   00002E                     	ds	2
   530   000030                     ___fldiv@grs:
   531                           	callstack 0
   532                           
   533                           ; 4 bytes @ 0x2F
   534   000030                     	ds	4
   535   000034                     ___fldiv@bexp:
   536                           	callstack 0
   537                           
   538                           ; 1 bytes @ 0x33
   539   000034                     	ds	1
   540   000035                     ___fldiv@aexp:
   541                           	callstack 0
   542                           
   543                           ; 1 bytes @ 0x34
   544   000035                     	ds	1
   545   000036                     ?___flmul:
   546                           	callstack 0
   547   000036                     ___flmul@b:
   548                           	callstack 0
   549                           
   550                           ; 4 bytes @ 0x35
   551   000036                     	ds	4
   552   00003A                     ___flmul@a:
   553                           	callstack 0
   554                           
   555                           ; 4 bytes @ 0x39
   556   00003A                     	ds	4
   557   00003E                     ??___flmul:
   558                           
   559                           ; 1 bytes @ 0x3D
   560   00003E                     	ds	4
   561   000042                     ___flmul@sign:
   562                           	callstack 0
   563                           
   564                           ; 1 bytes @ 0x41
   565   000042                     	ds	1
   566   000043                     ___flmul@grs:
   567                           	callstack 0
   568                           
   569                           ; 4 bytes @ 0x42
   570   000043                     	ds	4
   571   000047                     ___flmul@aexp:
   572                           	callstack 0
   573                           
   574                           ; 1 bytes @ 0x46
   575   000047                     	ds	1
   576   000048                     ___flmul@bexp:
   577                           	callstack 0
   578                           
   579                           ; 1 bytes @ 0x47
   580   000048                     	ds	1
   581   000049                     ___flmul@prod:
   582                           	callstack 0
   583                           
   584                           ; 4 bytes @ 0x48
   585   000049                     	ds	4
   586   00004D                     ___flmul@temp:
   587                           	callstack 0
   588                           
   589                           ; 2 bytes @ 0x4C
   590   00004D                     	ds	2
   591   00004F                     ?___fladd:
   592                           	callstack 0
   593   00004F                     ___fladd@b:
   594                           	callstack 0
   595                           
   596                           ; 4 bytes @ 0x4E
   597   00004F                     	ds	4
   598   000053                     ___fladd@a:
   599                           	callstack 0
   600                           
   601                           ; 4 bytes @ 0x52
   602   000053                     	ds	4
   603   000057                     ??___fladd:
   604                           
   605                           ; 1 bytes @ 0x56
   606   000057                     	ds	4
   607   00005B                     ___fladd@signs:
   608                           	callstack 0
   609                           
   610                           ; 1 bytes @ 0x5A
   611   00005B                     	ds	1
   612   00005C                     ___fladd@aexp:
   613                           	callstack 0
   614                           
   615                           ; 1 bytes @ 0x5B
   616   00005C                     	ds	1
   617   00005D                     ___fladd@bexp:
   618                           	callstack 0
   619                           
   620                           ; 1 bytes @ 0x5C
   621   00005D                     	ds	1
   622   00005E                     ___fladd@grs:
   623                           	callstack 0
   624                           
   625                           ; 1 bytes @ 0x5D
   626   00005E                     	ds	1
   627   00005F                     ?___fltol:
   628                           	callstack 0
   629   00005F                     ___fltol@f1:
   630                           	callstack 0
   631                           
   632                           ; 4 bytes @ 0x5E
   633   00005F                     	ds	4
   634   000063                     ??___fltol:
   635                           
   636                           ; 1 bytes @ 0x62
   637   000063                     	ds	4
   638   000067                     ___fltol@sign1:
   639                           	callstack 0
   640                           
   641                           ; 1 bytes @ 0x66
   642   000067                     	ds	1
   643   000068                     ___fltol@exp1:
   644                           	callstack 0
   645                           
   646                           ; 1 bytes @ 0x67
   647   000068                     	ds	1
   648   000069                     set_servo_angle@angle:
   649                           	callstack 0
   650                           
   651                           ; 2 bytes @ 0x68
   652   000069                     	ds	2
   653   00006B                     ??_set_servo_angle:
   654                           
   655                           ; 1 bytes @ 0x6A
   656   00006B                     	ds	3
   657   00006E                     ??_main:
   658                           
   659                           ; 1 bytes @ 0x6D
   660   00006E                     	ds	1
   661                           
   662 ;;
   663 ;;Main: autosize = 0, tempsize = 1, incstack = 0, save=0
   664 ;;
   665 ;; *************** function _main *****************
   666 ;; Defined at:
   667 ;;		line 321 in file "2aa.c"
   668 ;; Parameters:    Size  Location     Type
   669 ;;		None
   670 ;; Auto vars:     Size  Location     Type
   671 ;;  x               2  118[BANK0 ] int 
   672 ;;  x               2  116[BANK0 ] int 
   673 ;;  x               2  114[BANK0 ] int 
   674 ;;  x               2  112[BANK0 ] int 
   675 ;;  str           100   12[BANK0 ] unsigned char [100]
   676 ;; Return value:  Size  Location     Type
   677 ;;                  1    wreg      void 
   678 ;; Registers used:
   679 ;;		wreg, fsr1l, fsr1h, fsr2l, fsr2h, status,2, status,0, prodl, prodh, cstack
   680 ;; Tracked objects:
   681 ;;		On entry : 0/0
   682 ;;		On exit  : 0/0
   683 ;;		Unchanged: 0/0
   684 ;; Data sizes:     COMRAM   BANK0   BANK1   BANK2   BANK3   BANK4   BANK5
   685 ;;      Params:         0       0       0       0       0       0       0
   686 ;;      Locals:         0     108       0       0       0       0       0
   687 ;;      Temps:          1       0       0       0       0       0       0
   688 ;;      Totals:         1     108       0       0       0       0       0
   689 ;;Total ram usage:      109 bytes
   690 ;; Hardware stack levels required when called: 7
   691 ;; This function calls:
   692 ;;		_GetString
   693 ;;		_Initialize
   694 ;;		_keyboard_input
   695 ;;		_set_servo_angle
   696 ;; This function is called by:
   697 ;;		Startup code after reset
   698 ;; This function uses a non-reentrant model
   699 ;;
   700                           
   701                           	psect	text0
   702   0015F6                     __ptext0:
   703                           	callstack 0
   704   0015F6                     _main:
   705                           	callstack 24
   706   0015F6  EC45  F00C         	call	_Initialize	;wreg free
   707   0015FA  0E00               	movlw	0
   708   0015FC  6E6A               	movwf	(set_servo_angle@angle+1)^0,c
   709   0015FE  0E2D               	movlw	45
   710   001600  6E69               	movwf	set_servo_angle@angle^0,c
   711   001602  EC37  F009         	call	_set_servo_angle	;wreg free
   712   001606                     l2442:
   713   001606  0100               	movlb	0	; () banked
   714   001608  05FA               	decf	_mode& (0+255),w,b
   715   00160A  11FB               	iorwf	(_mode+1)& (0+255),w,b
   716   00160C  A4D8               	btfss	status,2,c
   717   00160E  EF0B  F00B         	goto	u2411
   718   001612  EF0D  F00B         	goto	u2410
   719   001616                     u2411:
   720   001616  EF54  F00B         	goto	l2472
   721   00161A                     u2410:
   722   00161A                     
   723                           ; BSR set to: 0
   724   00161A  0EFF               	movlw	255
   725   00161C  6FF1               	movwf	(main@x+1)& (0+255),b
   726   00161E  0ED3               	movlw	211
   727   001620  6FF0               	movwf	main@x& (0+255),b
   728   001622                     l2450:
   729                           
   730                           ; BSR set to: 0
   731   001622  C0F0  F069         	movff	main@x,set_servo_angle@angle
   732   001626  C0F1  F06A         	movff	main@x+1,set_servo_angle@angle+1
   733   00162A  EC37  F009         	call	_set_servo_angle	;wreg free
   734   00162E  0E27               	movlw	39
   735   001630  6E6E               	movwf	??_main^0,c
   736   001632  0EF5               	movlw	245
   737   001634                     u2497:
   738   001634  2EE8               	decfsz	wreg,f,c
   739   001636  D7FE               	bra	u2497
   740   001638  2E6E               	decfsz	??_main^0,f,c
   741   00163A  D7FC               	bra	u2497
   742   00163C  0000               	nop	
   743   00163E  0100               	movlb	0	; () banked
   744   001640  4BF0               	infsnz	main@x& (0+255),f,b
   745   001642  2BF1               	incf	(main@x+1)& (0+255),f,b
   746   001644                     
   747                           ; BSR set to: 0
   748   001644  BFF1               	btfsc	(main@x+1)& (0+255),7,b
   749   001646  EF2E  F00B         	goto	u2421
   750   00164A  51F1               	movf	(main@x+1)& (0+255),w,b
   751   00164C  E109               	bnz	u2420
   752   00164E  0E2E               	movlw	46
   753   001650  5DF0               	subwf	main@x& (0+255),w,b
   754   001652  A0D8               	btfss	status,0,c
   755   001654  EF2E  F00B         	goto	u2421
   756   001658  EF30  F00B         	goto	u2420
   757   00165C                     u2421:
   758   00165C  EF11  F00B         	goto	l2450
   759   001660                     u2420:
   760   001660                     
   761                           ; BSR set to: 0
   762   001660  0E00               	movlw	0
   763   001662  6FF3               	movwf	(main@x_926+1)& (0+255),b
   764   001664  0E2D               	movlw	45
   765   001666  6FF2               	movwf	main@x_926& (0+255),b
   766   001668                     l2464:
   767                           
   768                           ; BSR set to: 0
   769   001668  C0F2  F069         	movff	main@x_926,set_servo_angle@angle
   770   00166C  C0F3  F06A         	movff	main@x_926+1,set_servo_angle@angle+1
   771   001670  EC37  F009         	call	_set_servo_angle	;wreg free
   772   001674  0E27               	movlw	39
   773   001676  6E6E               	movwf	??_main^0,c
   774   001678  0EF5               	movlw	245
   775   00167A                     u2507:
   776   00167A  2EE8               	decfsz	wreg,f,c
   777   00167C  D7FE               	bra	u2507
   778   00167E  2E6E               	decfsz	??_main^0,f,c
   779   001680  D7FC               	bra	u2507
   780   001682  0000               	nop	
   781   001684  0100               	movlb	0	; () banked
   782   001686  07F2               	decf	main@x_926& (0+255),f,b
   783   001688  A0D8               	btfss	status,0,c
   784   00168A  07F3               	decf	(main@x_926+1)& (0+255),f,b
   785   00168C                     
   786                           ; BSR set to: 0
   787   00168C  AFF3               	btfss	(main@x_926+1)& (0+255),7,b
   788   00168E  EF52  F00B         	goto	u2431
   789   001692  0ED3               	movlw	211
   790   001694  5DF2               	subwf	main@x_926& (0+255),w,b
   791   001696  0EFF               	movlw	255
   792   001698  59F3               	subwfb	(main@x_926+1)& (0+255),w,b
   793   00169A  B0D8               	btfsc	status,0,c
   794   00169C  EF52  F00B         	goto	u2431
   795   0016A0  EF54  F00B         	goto	u2430
   796   0016A4                     u2431:
   797   0016A4  EF34  F00B         	goto	l2464
   798   0016A8                     u2430:
   799   0016A8                     l2472:
   800                           
   801                           ; BSR set to: 0
   802   0016A8  0E02               	movlw	2
   803   0016AA  19FA               	xorwf	_mode& (0+255),w,b
   804   0016AC  11FB               	iorwf	(_mode+1)& (0+255),w,b
   805   0016AE  A4D8               	btfss	status,2,c
   806   0016B0  EF5C  F00B         	goto	u2441
   807   0016B4  EF5E  F00B         	goto	u2440
   808   0016B8                     u2441:
   809   0016B8  EFA5  F00B         	goto	l2502
   810   0016BC                     u2440:
   811   0016BC                     
   812                           ; BSR set to: 0
   813   0016BC  0EFF               	movlw	255
   814   0016BE  6FF5               	movwf	(main@x_927+1)& (0+255),b
   815   0016C0  0EA6               	movlw	166
   816   0016C2  6FF4               	movwf	main@x_927& (0+255),b
   817   0016C4                     l2480:
   818                           
   819                           ; BSR set to: 0
   820   0016C4  C0F4  F069         	movff	main@x_927,set_servo_angle@angle
   821   0016C8  C0F5  F06A         	movff	main@x_927+1,set_servo_angle@angle+1
   822   0016CC  EC37  F009         	call	_set_servo_angle	;wreg free
   823   0016D0  0E27               	movlw	39
   824   0016D2  6E6E               	movwf	??_main^0,c
   825   0016D4  0EF5               	movlw	245
   826   0016D6                     u2517:
   827   0016D6  2EE8               	decfsz	wreg,f,c
   828   0016D8  D7FE               	bra	u2517
   829   0016DA  2E6E               	decfsz	??_main^0,f,c
   830   0016DC  D7FC               	bra	u2517
   831   0016DE  0000               	nop	
   832   0016E0  0100               	movlb	0	; () banked
   833   0016E2  4BF4               	infsnz	main@x_927& (0+255),f,b
   834   0016E4  2BF5               	incf	(main@x_927+1)& (0+255),f,b
   835   0016E6                     
   836                           ; BSR set to: 0
   837   0016E6  BFF5               	btfsc	(main@x_927+1)& (0+255),7,b
   838   0016E8  EF7F  F00B         	goto	u2451
   839   0016EC  51F5               	movf	(main@x_927+1)& (0+255),w,b
   840   0016EE  E109               	bnz	u2450
   841   0016F0  0E5B               	movlw	91
   842   0016F2  5DF4               	subwf	main@x_927& (0+255),w,b
   843   0016F4  A0D8               	btfss	status,0,c
   844   0016F6  EF7F  F00B         	goto	u2451
   845   0016FA  EF81  F00B         	goto	u2450
   846   0016FE                     u2451:
   847   0016FE  EF62  F00B         	goto	l2480
   848   001702                     u2450:
   849   001702                     
   850                           ; BSR set to: 0
   851   001702  0E00               	movlw	0
   852   001704  6FF7               	movwf	(main@x_928+1)& (0+255),b
   853   001706  0E5A               	movlw	90
   854   001708  6FF6               	movwf	main@x_928& (0+255),b
   855   00170A                     l2494:
   856                           
   857                           ; BSR set to: 0
   858   00170A  C0F6  F069         	movff	main@x_928,set_servo_angle@angle
   859   00170E  C0F7  F06A         	movff	main@x_928+1,set_servo_angle@angle+1
   860   001712  EC37  F009         	call	_set_servo_angle	;wreg free
   861   001716  0E27               	movlw	39
   862   001718  6E6E               	movwf	??_main^0,c
   863   00171A  0EF5               	movlw	245
   864   00171C                     u2527:
   865   00171C  2EE8               	decfsz	wreg,f,c
   866   00171E  D7FE               	bra	u2527
   867   001720  2E6E               	decfsz	??_main^0,f,c
   868   001722  D7FC               	bra	u2527
   869   001724  0000               	nop	
   870   001726  0100               	movlb	0	; () banked
   871   001728  07F6               	decf	main@x_928& (0+255),f,b
   872   00172A  A0D8               	btfss	status,0,c
   873   00172C  07F7               	decf	(main@x_928+1)& (0+255),f,b
   874   00172E                     
   875                           ; BSR set to: 0
   876   00172E  AFF7               	btfss	(main@x_928+1)& (0+255),7,b
   877   001730  EFA3  F00B         	goto	u2461
   878   001734  0EA6               	movlw	166
   879   001736  5DF6               	subwf	main@x_928& (0+255),w,b
   880   001738  0EFF               	movlw	255
   881   00173A  59F7               	subwfb	(main@x_928+1)& (0+255),w,b
   882   00173C  B0D8               	btfsc	status,0,c
   883   00173E  EFA3  F00B         	goto	u2461
   884   001742  EFA5  F00B         	goto	u2460
   885   001746                     u2461:
   886   001746  EF85  F00B         	goto	l2494
   887   00174A                     u2460:
   888   00174A                     l2502:
   889                           
   890                           ; BSR set to: 0
   891   00174A  0E8C               	movlw	low main@str
   892   00174C  6E13               	movwf	GetString@str^0,c
   893   00174E  ECBB  F00C         	call	_GetString	;wreg free
   894   001752  5013               	movf	?_GetString^0,w,c
   895   001754  1014               	iorwf	(?_GetString+1)^0,w,c
   896   001756  B4D8               	btfsc	status,2,c
   897   001758  EFB0  F00B         	goto	u2471
   898   00175C  EFB2  F00B         	goto	u2470
   899   001760                     u2471:
   900   001760  EFB6  F00B         	goto	l2506
   901   001764                     u2470:
   902   001764  0E8C               	movlw	low main@str
   903   001766  6E0F               	movwf	keyboard_input@str^0,c
   904   001768  ECB8  F00D         	call	_keyboard_input	;wreg free
   905   00176C                     l2506:
   906   00176C  B2C2               	btfsc	194,1,c	;volatile
   907   00176E  EFBB  F00B         	goto	u2481
   908   001772  EFBD  F00B         	goto	u2480
   909   001776                     u2481:
   910   001776  EF03  F00B         	goto	l2442
   911   00177A                     u2480:
   912   00177A  82C2               	bsf	194,1,c	;volatile
   913   00177C  EF03  F00B         	goto	l2442
   914   001780  EF36  F000         	goto	start
   915   001784                     __end_of_main:
   916                           	callstack 0
   917                           
   918 ;; *************** function _set_servo_angle *****************
   919 ;; Defined at:
   920 ;;		line 236 in file "2aa.c"
   921 ;; Parameters:    Size  Location     Type
   922 ;;  angle           2  104[COMRAM] int 
   923 ;; Auto vars:     Size  Location     Type
   924 ;;  current         2   10[BANK0 ] int 
   925 ;;  target          2    8[BANK0 ] int 
   926 ;; Return value:  Size  Location     Type
   927 ;;                  1    wreg      void 
   928 ;; Registers used:
   929 ;;		wreg, status,2, status,0, prodl, prodh, cstack
   930 ;; Tracked objects:
   931 ;;		On entry : 0/0
   932 ;;		On exit  : 0/0
   933 ;;		Unchanged: 0/0
   934 ;; Data sizes:     COMRAM   BANK0   BANK1   BANK2   BANK3   BANK4   BANK5
   935 ;;      Params:         2       0       0       0       0       0       0
   936 ;;      Locals:         0      12       0       0       0       0       0
   937 ;;      Temps:          3       0       0       0       0       0       0
   938 ;;      Totals:         5      12       0       0       0       0       0
   939 ;;Total ram usage:       17 bytes
   940 ;; Hardware stack levels used: 1
   941 ;; Hardware stack levels required when called: 6
   942 ;; This function calls:
   943 ;;		___fladd
   944 ;;		___fldiv
   945 ;;		___flmul
   946 ;;		___fltol
   947 ;;		___xxtofl
   948 ;; This function is called by:
   949 ;;		_main
   950 ;; This function uses a non-reentrant model
   951 ;;
   952                           
   953                           	psect	text1
   954   00126E                     __ptext1:
   955                           	callstack 0
   956   00126E                     _set_servo_angle:
   957                           	callstack 24
   958   00126E  38BD               	swapf	189,w,c	;volatile
   959   001270  0B03               	andlw	3
   960   001272  6E6B               	movwf	??_set_servo_angle^0,c
   961   001274  50BE               	movf	190,w,c	;volatile
   962   001276  6E6C               	movwf	(??_set_servo_angle+1)^0,c
   963   001278  6A6D               	clrf	(??_set_servo_angle+2)^0,c
   964   00127A  90D8               	bcf	status,0,c
   965   00127C  366C               	rlcf	(??_set_servo_angle+1)^0,f,c
   966   00127E  366D               	rlcf	(??_set_servo_angle+2)^0,f,c
   967   001280  90D8               	bcf	status,0,c
   968   001282  366C               	rlcf	(??_set_servo_angle+1)^0,f,c
   969   001284  366D               	rlcf	(??_set_servo_angle+2)^0,f,c
   970   001286  506B               	movf	??_set_servo_angle^0,w,c
   971   001288  246C               	addwf	(??_set_servo_angle+1)^0,w,c
   972   00128A  0100               	movlb	0	; () banked
   973   00128C  6F8A               	movwf	set_servo_angle@current& (0+255),b
   974   00128E  0E00               	movlw	0
   975   001290  206D               	addwfc	(??_set_servo_angle+2)^0,w,c
   976   001292  6F8B               	movwf	(set_servo_angle@current+1)& (0+255),b
   977   001294                     
   978                           ; BSR set to: 0
   979   001294  0E00               	movlw	0
   980   001296  6E53               	movwf	___fladd@a^0,c
   981   001298  0E00               	movlw	0
   982   00129A  6E54               	movwf	(___fladd@a+1)^0,c
   983   00129C  0EFA               	movlw	250
   984   00129E  6E55               	movwf	(___fladd@a+2)^0,c
   985   0012A0  0E43               	movlw	67
   986   0012A2  6E56               	movwf	(___fladd@a+3)^0,c
   987   0012A4  0E00               	movlw	0
   988   0012A6  6E3A               	movwf	___flmul@a^0,c
   989   0012A8  0E80               	movlw	128
   990   0012AA  6E3B               	movwf	(___flmul@a+1)^0,c
   991   0012AC  0EED               	movlw	237
   992   0012AE  6E3C               	movwf	(___flmul@a+2)^0,c
   993   0012B0  0E44               	movlw	68
   994   0012B2  6E3D               	movwf	(___flmul@a+3)^0,c
   995   0012B4  0E00               	movlw	0
   996   0012B6  6E21               	movwf	___fldiv@a^0,c
   997   0012B8  0E00               	movlw	0
   998   0012BA  6E22               	movwf	(___fldiv@a+1)^0,c
   999   0012BC  0E34               	movlw	52
  1000   0012BE  6E23               	movwf	(___fldiv@a+2)^0,c
  1001   0012C0  0E43               	movlw	67
  1002   0012C2  6E24               	movwf	(___fldiv@a+3)^0,c
  1003   0012C4  0E5A               	movlw	90
  1004   0012C6  2469               	addwf	set_servo_angle@angle^0,w,c
  1005   0012C8  6E6B               	movwf	??_set_servo_angle^0,c
  1006   0012CA  0E00               	movlw	0
  1007   0012CC  206A               	addwfc	(set_servo_angle@angle+1)^0,w,c
  1008   0012CE  6E6C               	movwf	(??_set_servo_angle+1)^0,c
  1009   0012D0  C06B  F00F         	movff	??_set_servo_angle,___xxtofl@val
  1010   0012D4  C06C  F010         	movff	??_set_servo_angle+1,___xxtofl@val+1
  1011   0012D8  0E00               	movlw	0
  1012   0012DA  BE10               	btfsc	(___xxtofl@val+1)^0,7,c
  1013   0012DC  0EFF               	movlw	-1
  1014   0012DE  6E11               	movwf	(___xxtofl@val+2)^0,c
  1015   0012E0  6E12               	movwf	(___xxtofl@val+3)^0,c
  1016   0012E2  0E01               	movlw	1
  1017   0012E4  EC21  F00A         	call	___xxtofl
  1018   0012E8  C00F  F01D         	movff	?___xxtofl,___fldiv@b
  1019   0012EC  C010  F01E         	movff	?___xxtofl+1,___fldiv@b+1
  1020   0012F0  C011  F01F         	movff	?___xxtofl+2,___fldiv@b+2
  1021   0012F4  C012  F020         	movff	?___xxtofl+3,___fldiv@b+3
  1022   0012F8  EC6F  F007         	call	___fldiv	;wreg free
  1023   0012FC  C01D  F036         	movff	?___fldiv,___flmul@b
  1024   001300  C01E  F037         	movff	?___fldiv+1,___flmul@b+1
  1025   001304  C01F  F038         	movff	?___fldiv+2,___flmul@b+2
  1026   001308  C020  F039         	movff	?___fldiv+3,___flmul@b+3
  1027   00130C  EC5C  F005         	call	___flmul	;wreg free
  1028   001310  C036  F04F         	movff	?___flmul,___fladd@b
  1029   001314  C037  F050         	movff	?___flmul+1,___fladd@b+1
  1030   001318  C038  F051         	movff	?___flmul+2,___fladd@b+2
  1031   00131C  C039  F052         	movff	?___flmul+3,___fladd@b+3
  1032   001320  EC01  F003         	call	___fladd	;wreg free
  1033   001324  C04F  F080         	movff	?___fladd,_set_servo_angle$1584
  1034   001328  C050  F081         	movff	?___fladd+1,_set_servo_angle$1584+1
  1035   00132C  C051  F082         	movff	?___fladd+2,_set_servo_angle$1584+2
  1036   001330  C052  F083         	movff	?___fladd+3,_set_servo_angle$1584+3
  1037   001334  0E00               	movlw	0
  1038   001336  6E21               	movwf	___fldiv@a^0,c
  1039   001338  0E00               	movlw	0
  1040   00133A  6E22               	movwf	(___fldiv@a+1)^0,c
  1041   00133C  0E00               	movlw	0
  1042   00133E  6E23               	movwf	(___fldiv@a+2)^0,c
  1043   001340  0E41               	movlw	65
  1044   001342  6E24               	movwf	(___fldiv@a+3)^0,c
  1045   001344  C080  F01D         	movff	_set_servo_angle$1584,___fldiv@b
  1046   001348  C081  F01E         	movff	_set_servo_angle$1584+1,___fldiv@b+1
  1047   00134C  C082  F01F         	movff	_set_servo_angle$1584+2,___fldiv@b+2
  1048   001350  C083  F020         	movff	_set_servo_angle$1584+3,___fldiv@b+3
  1049   001354  EC6F  F007         	call	___fldiv	;wreg free
  1050   001358  C01D  F084         	movff	?___fldiv,_set_servo_angle$1585
  1051   00135C  C01E  F085         	movff	?___fldiv+1,_set_servo_angle$1585+1
  1052   001360  C01F  F086         	movff	?___fldiv+2,_set_servo_angle$1585+2
  1053   001364  C020  F087         	movff	?___fldiv+3,_set_servo_angle$1585+3
  1054   001368  0E00               	movlw	0
  1055   00136A  6E21               	movwf	___fldiv@a^0,c
  1056   00136C  0E00               	movlw	0
  1057   00136E  6E22               	movwf	(___fldiv@a+1)^0,c
  1058   001370  0E80               	movlw	128
  1059   001372  6E23               	movwf	(___fldiv@a+2)^0,c
  1060   001374  0E40               	movlw	64
  1061   001376  6E24               	movwf	(___fldiv@a+3)^0,c
  1062   001378  C084  F01D         	movff	_set_servo_angle$1585,___fldiv@b
  1063   00137C  C085  F01E         	movff	_set_servo_angle$1585+1,___fldiv@b+1
  1064   001380  C086  F01F         	movff	_set_servo_angle$1585+2,___fldiv@b+2
  1065   001384  C087  F020         	movff	_set_servo_angle$1585+3,___fldiv@b+3
  1066   001388  EC6F  F007         	call	___fldiv	;wreg free
  1067   00138C  C01D  F05F         	movff	?___fldiv,___fltol@f1
  1068   001390  C01E  F060         	movff	?___fldiv+1,___fltol@f1+1
  1069   001394  C01F  F061         	movff	?___fldiv+2,___fltol@f1+2
  1070   001398  C020  F062         	movff	?___fldiv+3,___fltol@f1+3
  1071   00139C  ECC2  F00B         	call	___fltol	;wreg free
  1072   0013A0  90D8               	bcf	status,0,c
  1073   0013A2  365F               	rlcf	?___fltol^0,f,c
  1074   0013A4  3660               	rlcf	(?___fltol+1)^0,f,c
  1075   0013A6  90D8               	bcf	status,0,c
  1076   0013A8  365F               	rlcf	?___fltol^0,f,c
  1077   0013AA  3660               	rlcf	(?___fltol+1)^0,f,c
  1078   0013AC  90D8               	bcf	status,0,c
  1079   0013AE  365F               	rlcf	?___fltol^0,f,c
  1080   0013B0  3660               	rlcf	(?___fltol+1)^0,f,c
  1081   0013B2  C05F  F088         	movff	?___fltol,set_servo_angle@target
  1082   0013B6  C060  F089         	movff	?___fltol+1,set_servo_angle@target+1
  1083   0013BA  EF0F  F00A         	goto	l134
  1084   0013BE                     l2386:
  1085                           
  1086                           ; BSR set to: 0
  1087   0013BE  5188               	movf	set_servo_angle@target& (0+255),w,b
  1088   0013C0  5D8A               	subwf	set_servo_angle@current& (0+255),w,b
  1089   0013C2  518B               	movf	(set_servo_angle@current+1)& (0+255),w,b
  1090   0013C4  0A80               	xorlw	128
  1091   0013C6  6E6B               	movwf	??_set_servo_angle^0,c
  1092   0013C8  5189               	movf	(set_servo_angle@target+1)& (0+255),w,b
  1093   0013CA  0A80               	xorlw	128
  1094   0013CC  586B               	subwfb	??_set_servo_angle^0,w,c
  1095   0013CE  B0D8               	btfsc	status,0,c
  1096   0013D0  EFEC  F009         	goto	u2331
  1097   0013D4  EFEE  F009         	goto	u2330
  1098   0013D8                     u2331:
  1099   0013D8  EFF2  F009         	goto	l2390
  1100   0013DC                     u2330:
  1101   0013DC                     
  1102                           ; BSR set to: 0
  1103   0013DC  4B8A               	infsnz	set_servo_angle@current& (0+255),f,b
  1104   0013DE  2B8B               	incf	(set_servo_angle@current+1)& (0+255),f,b
  1105   0013E0  EFF5  F009         	goto	l2392
  1106   0013E4                     l2390:
  1107                           
  1108                           ; BSR set to: 0
  1109   0013E4  078A               	decf	set_servo_angle@current& (0+255),f,b
  1110   0013E6  A0D8               	btfss	status,0,c
  1111   0013E8  078B               	decf	(set_servo_angle@current+1)& (0+255),f,b
  1112   0013EA                     l2392:
  1113                           
  1114                           ; BSR set to: 0
  1115   0013EA  C08A  F06B         	movff	set_servo_angle@current,??_set_servo_angle
  1116   0013EE  C08B  F06C         	movff	set_servo_angle@current+1,??_set_servo_angle+1
  1117   0013F2  346C               	rlcf	(??_set_servo_angle+1)^0,w,c
  1118   0013F4  326C               	rrcf	(??_set_servo_angle+1)^0,f,c
  1119   0013F6  326B               	rrcf	??_set_servo_angle^0,f,c
  1120   0013F8  346C               	rlcf	(??_set_servo_angle+1)^0,w,c
  1121   0013FA  326C               	rrcf	(??_set_servo_angle+1)^0,f,c
  1122   0013FC  326B               	rrcf	??_set_servo_angle^0,f,c
  1123   0013FE  506B               	movf	??_set_servo_angle^0,w,c
  1124   001400  6EBE               	movwf	190,c	;volatile
  1125   001402                     
  1126                           ; BSR set to: 0
  1127   001402  C08A  F06B         	movff	set_servo_angle@current,??_set_servo_angle
  1128   001406  0E03               	movlw	3
  1129   001408  166B               	andwf	??_set_servo_angle^0,f,c
  1130   00140A  3A6B               	swapf	??_set_servo_angle^0,f,c
  1131   00140C  50BD               	movf	189,w,c	;volatile
  1132   00140E  186B               	xorwf	??_set_servo_angle^0,w,c
  1133   001410  0BCF               	andlw	-49
  1134   001412  186B               	xorwf	??_set_servo_angle^0,w,c
  1135   001414  6EBD               	movwf	189,c	;volatile
  1136   001416                     
  1137                           ; BSR set to: 0
  1138   001416  0EC8               	movlw	200
  1139   001418                     u2537:
  1140   001418  D000               	nop2	
  1141   00141A  2EE8               	decfsz	wreg,f,c
  1142   00141C  D7FD               	bra	u2537
  1143   00141E                     l134:
  1144   00141E  0100               	movlb	0	; () banked
  1145   001420  5188               	movf	set_servo_angle@target& (0+255),w,b
  1146   001422  198A               	xorwf	set_servo_angle@current& (0+255),w,b
  1147   001424  E107               	bnz	u2341
  1148   001426  5189               	movf	(set_servo_angle@target+1)& (0+255),w,b
  1149   001428  198B               	xorwf	(set_servo_angle@current+1)& (0+255),w,b
  1150   00142A  A4D8               	btfss	status,2,c
  1151   00142C  EF1A  F00A         	goto	u2341
  1152   001430  EF1C  F00A         	goto	u2340
  1153   001434                     u2341:
  1154   001434  EFDF  F009         	goto	l2386
  1155   001438                     u2340:
  1156   001438                     
  1157                           ; BSR set to: 0
  1158   001438  C069  F0F8         	movff	set_servo_angle@angle,_current_servo_angle
  1159   00143C  C06A  F0F9         	movff	set_servo_angle@angle+1,_current_servo_angle+1
  1160   001440                     
  1161                           ; BSR set to: 0
  1162   001440  0012               	return		;funcret
  1163   001442                     __end_of_set_servo_angle:
  1164                           	callstack 0
  1165                           
  1166 ;; *************** function ___xxtofl *****************
  1167 ;; Defined at:
  1168 ;;		line 10 in file "C:\Program Files\Microchip\xc8\v2.50\pic\sources\c99\common\xxtofl.c"
  1169 ;; Parameters:    Size  Location     Type
  1170 ;;  sign            1    wreg     unsigned char 
  1171 ;;  val             4   14[COMRAM] long 
  1172 ;; Auto vars:     Size  Location     Type
  1173 ;;  sign            1   22[COMRAM] unsigned char 
  1174 ;;  arg             4   24[COMRAM] unsigned long 
  1175 ;;  exp             1   23[COMRAM] unsigned char 
  1176 ;; Return value:  Size  Location     Type
  1177 ;;                  4   14[COMRAM] unsigned char 
  1178 ;; Registers used:
  1179 ;;		wreg, status,2, status,0
  1180 ;; Tracked objects:
  1181 ;;		On entry : 0/0
  1182 ;;		On exit  : 0/0
  1183 ;;		Unchanged: 0/0
  1184 ;; Data sizes:     COMRAM   BANK0   BANK1   BANK2   BANK3   BANK4   BANK5
  1185 ;;      Params:         4       0       0       0       0       0       0
  1186 ;;      Locals:         6       0       0       0       0       0       0
  1187 ;;      Temps:          4       0       0       0       0       0       0
  1188 ;;      Totals:        14       0       0       0       0       0       0
  1189 ;;Total ram usage:       14 bytes
  1190 ;; Hardware stack levels used: 1
  1191 ;; Hardware stack levels required when called: 5
  1192 ;; This function calls:
  1193 ;;		Nothing
  1194 ;; This function is called by:
  1195 ;;		_set_servo_angle
  1196 ;;		_VR_value_to_servo_angle
  1197 ;; This function uses a non-reentrant model
  1198 ;;
  1199                           
  1200                           	psect	text2
  1201   001442                     __ptext2:
  1202                           	callstack 0
  1203   001442                     ___xxtofl:
  1204                           	callstack 24
  1205                           
  1206                           ; BSR set to: 0
  1207                           ;incstack = 0
  1208                           ;___xxtofl@sign stored from wreg
  1209   001442  6E17               	movwf	___xxtofl@sign^0,c
  1210   001444  5017               	movf	___xxtofl@sign^0,w,c
  1211   001446  B4D8               	btfsc	status,2,c
  1212   001448  EF28  F00A         	goto	u2201
  1213   00144C  EF2A  F00A         	goto	u2200
  1214   001450                     u2201:
  1215   001450  EF4C  F00A         	goto	l844
  1216   001454                     u2200:
  1217   001454  BE12               	btfsc	(___xxtofl@val+3)^0,7,c
  1218   001456  EF31  F00A         	goto	u2210
  1219   00145A  EF2F  F00A         	goto	u2211
  1220   00145E                     u2211:
  1221   00145E  EF4C  F00A         	goto	l844
  1222   001462                     u2210:
  1223   001462  C00F  F013         	movff	___xxtofl@val,??___xxtofl
  1224   001466  C010  F014         	movff	___xxtofl@val+1,??___xxtofl+1
  1225   00146A  C011  F015         	movff	___xxtofl@val+2,??___xxtofl+2
  1226   00146E  C012  F016         	movff	___xxtofl@val+3,??___xxtofl+3
  1227   001472  1E13               	comf	??___xxtofl^0,f,c
  1228   001474  1E14               	comf	(??___xxtofl+1)^0,f,c
  1229   001476  1E15               	comf	(??___xxtofl+2)^0,f,c
  1230   001478  1E16               	comf	(??___xxtofl+3)^0,f,c
  1231   00147A  2A13               	incf	??___xxtofl^0,f,c
  1232   00147C  0E00               	movlw	0
  1233   00147E  2214               	addwfc	(??___xxtofl+1)^0,f,c
  1234   001480  2215               	addwfc	(??___xxtofl+2)^0,f,c
  1235   001482  2216               	addwfc	(??___xxtofl+3)^0,f,c
  1236   001484  C013  F019         	movff	??___xxtofl,___xxtofl@arg
  1237   001488  C014  F01A         	movff	??___xxtofl+1,___xxtofl@arg+1
  1238   00148C  C015  F01B         	movff	??___xxtofl+2,___xxtofl@arg+2
  1239   001490  C016  F01C         	movff	??___xxtofl+3,___xxtofl@arg+3
  1240   001494  EF54  F00A         	goto	l2230
  1241   001498                     l844:
  1242   001498  C00F  F019         	movff	___xxtofl@val,___xxtofl@arg
  1243   00149C  C010  F01A         	movff	___xxtofl@val+1,___xxtofl@arg+1
  1244   0014A0  C011  F01B         	movff	___xxtofl@val+2,___xxtofl@arg+2
  1245   0014A4  C012  F01C         	movff	___xxtofl@val+3,___xxtofl@arg+3
  1246   0014A8                     l2230:
  1247   0014A8  500F               	movf	___xxtofl@val^0,w,c
  1248   0014AA  1010               	iorwf	(___xxtofl@val+1)^0,w,c
  1249   0014AC  1011               	iorwf	(___xxtofl@val+2)^0,w,c
  1250   0014AE  1012               	iorwf	(___xxtofl@val+3)^0,w,c
  1251   0014B0  A4D8               	btfss	status,2,c
  1252   0014B2  EF5D  F00A         	goto	u2221
  1253   0014B6  EF5F  F00A         	goto	u2220
  1254   0014BA                     u2221:
  1255   0014BA  EF69  F00A         	goto	l2236
  1256   0014BE                     u2220:
  1257   0014BE  0E00               	movlw	0
  1258   0014C0  6E0F               	movwf	?___xxtofl^0,c
  1259   0014C2  0E00               	movlw	0
  1260   0014C4  6E10               	movwf	(?___xxtofl+1)^0,c
  1261   0014C6  0E00               	movlw	0
  1262   0014C8  6E11               	movwf	(?___xxtofl+2)^0,c
  1263   0014CA  0E00               	movlw	0
  1264   0014CC  6E12               	movwf	(?___xxtofl+3)^0,c
  1265   0014CE  EFFA  F00A         	goto	l847
  1266   0014D2                     l2236:
  1267   0014D2  0E96               	movlw	150
  1268   0014D4  6E18               	movwf	___xxtofl@exp^0,c
  1269   0014D6  EF73  F00A         	goto	l2240
  1270   0014DA                     l2238:
  1271   0014DA  2A18               	incf	___xxtofl@exp^0,f,c
  1272   0014DC  90D8               	bcf	status,0,c
  1273   0014DE  321C               	rrcf	(___xxtofl@arg+3)^0,f,c
  1274   0014E0  321B               	rrcf	(___xxtofl@arg+2)^0,f,c
  1275   0014E2  321A               	rrcf	(___xxtofl@arg+1)^0,f,c
  1276   0014E4  3219               	rrcf	___xxtofl@arg^0,f,c
  1277   0014E6                     l2240:
  1278   0014E6  0E00               	movlw	0
  1279   0014E8  1419               	andwf	___xxtofl@arg^0,w,c
  1280   0014EA  6E13               	movwf	??___xxtofl^0,c
  1281   0014EC  0E00               	movlw	0
  1282   0014EE  141A               	andwf	(___xxtofl@arg+1)^0,w,c
  1283   0014F0  6E14               	movwf	(??___xxtofl+1)^0,c
  1284   0014F2  0E00               	movlw	0
  1285   0014F4  141B               	andwf	(___xxtofl@arg+2)^0,w,c
  1286   0014F6  6E15               	movwf	(??___xxtofl+2)^0,c
  1287   0014F8  0EFE               	movlw	254
  1288   0014FA  141C               	andwf	(___xxtofl@arg+3)^0,w,c
  1289   0014FC  6E16               	movwf	(??___xxtofl+3)^0,c
  1290   0014FE  5013               	movf	??___xxtofl^0,w,c
  1291   001500  1014               	iorwf	(??___xxtofl+1)^0,w,c
  1292   001502  1015               	iorwf	(??___xxtofl+2)^0,w,c
  1293   001504  1016               	iorwf	(??___xxtofl+3)^0,w,c
  1294   001506  A4D8               	btfss	status,2,c
  1295   001508  EF88  F00A         	goto	u2231
  1296   00150C  EF8A  F00A         	goto	u2230
  1297   001510                     u2231:
  1298   001510  EF6D  F00A         	goto	l2238
  1299   001514                     u2230:
  1300   001514  EF98  F00A         	goto	l851
  1301   001518                     l2242:
  1302   001518  2A18               	incf	___xxtofl@exp^0,f,c
  1303   00151A  0E01               	movlw	1
  1304   00151C  2619               	addwf	___xxtofl@arg^0,f,c
  1305   00151E  0E00               	movlw	0
  1306   001520  221A               	addwfc	(___xxtofl@arg+1)^0,f,c
  1307   001522  221B               	addwfc	(___xxtofl@arg+2)^0,f,c
  1308   001524  221C               	addwfc	(___xxtofl@arg+3)^0,f,c
  1309   001526  90D8               	bcf	status,0,c
  1310   001528  321C               	rrcf	(___xxtofl@arg+3)^0,f,c
  1311   00152A  321B               	rrcf	(___xxtofl@arg+2)^0,f,c
  1312   00152C  321A               	rrcf	(___xxtofl@arg+1)^0,f,c
  1313   00152E  3219               	rrcf	___xxtofl@arg^0,f,c
  1314   001530                     l851:
  1315   001530  0E00               	movlw	0
  1316   001532  1419               	andwf	___xxtofl@arg^0,w,c
  1317   001534  6E13               	movwf	??___xxtofl^0,c
  1318   001536  0E00               	movlw	0
  1319   001538  141A               	andwf	(___xxtofl@arg+1)^0,w,c
  1320   00153A  6E14               	movwf	(??___xxtofl+1)^0,c
  1321   00153C  0E00               	movlw	0
  1322   00153E  141B               	andwf	(___xxtofl@arg+2)^0,w,c
  1323   001540  6E15               	movwf	(??___xxtofl+2)^0,c
  1324   001542  0EFF               	movlw	255
  1325   001544  141C               	andwf	(___xxtofl@arg+3)^0,w,c
  1326   001546  6E16               	movwf	(??___xxtofl+3)^0,c
  1327   001548  5013               	movf	??___xxtofl^0,w,c
  1328   00154A  1014               	iorwf	(??___xxtofl+1)^0,w,c
  1329   00154C  1015               	iorwf	(??___xxtofl+2)^0,w,c
  1330   00154E  1016               	iorwf	(??___xxtofl+3)^0,w,c
  1331   001550  A4D8               	btfss	status,2,c
  1332   001552  EFAD  F00A         	goto	u2241
  1333   001556  EFAF  F00A         	goto	u2240
  1334   00155A                     u2241:
  1335   00155A  EF8C  F00A         	goto	l2242
  1336   00155E                     u2240:
  1337   00155E  EFB7  F00A         	goto	l2250
  1338   001562                     l2248:
  1339   001562  0618               	decf	___xxtofl@exp^0,f,c
  1340   001564  90D8               	bcf	status,0,c
  1341   001566  3619               	rlcf	___xxtofl@arg^0,f,c
  1342   001568  361A               	rlcf	(___xxtofl@arg+1)^0,f,c
  1343   00156A  361B               	rlcf	(___xxtofl@arg+2)^0,f,c
  1344   00156C  361C               	rlcf	(___xxtofl@arg+3)^0,f,c
  1345   00156E                     l2250:
  1346   00156E  BE1B               	btfsc	(___xxtofl@arg+2)^0,7,c
  1347   001570  EFBC  F00A         	goto	u2251
  1348   001574  EFBE  F00A         	goto	u2250
  1349   001578                     u2251:
  1350   001578  EFC6  F00A         	goto	l858
  1351   00157C                     u2250:
  1352   00157C  0E02               	movlw	2
  1353   00157E  6018               	cpfslt	___xxtofl@exp^0,c
  1354   001580  EFC4  F00A         	goto	u2261
  1355   001584  EFC6  F00A         	goto	u2260
  1356   001588                     u2261:
  1357   001588  EFB1  F00A         	goto	l2248
  1358   00158C                     u2260:
  1359   00158C                     l858:
  1360   00158C  B018               	btfsc	___xxtofl@exp^0,0,c
  1361   00158E  EFCB  F00A         	goto	u2271
  1362   001592  EFCD  F00A         	goto	u2270
  1363   001596                     u2271:
  1364   001596  EFCE  F00A         	goto	l2256
  1365   00159A                     u2270:
  1366   00159A  9E1B               	bcf	(___xxtofl@arg+2)^0,7,c
  1367   00159C                     l2256:
  1368   00159C  90D8               	bcf	status,0,c
  1369   00159E  3218               	rrcf	___xxtofl@exp^0,f,c
  1370   0015A0  C018  F013         	movff	___xxtofl@exp,??___xxtofl
  1371   0015A4  6A14               	clrf	(??___xxtofl+1)^0,c
  1372   0015A6  6A15               	clrf	(??___xxtofl+2)^0,c
  1373   0015A8  6A16               	clrf	(??___xxtofl+3)^0,c
  1374   0015AA  C013  F016         	movff	??___xxtofl,??___xxtofl+3
  1375   0015AE  6A15               	clrf	(??___xxtofl+2)^0,c
  1376   0015B0  6A14               	clrf	(??___xxtofl+1)^0,c
  1377   0015B2  6A13               	clrf	??___xxtofl^0,c
  1378   0015B4  5013               	movf	??___xxtofl^0,w,c
  1379   0015B6  1219               	iorwf	___xxtofl@arg^0,f,c
  1380   0015B8  5014               	movf	(??___xxtofl+1)^0,w,c
  1381   0015BA  121A               	iorwf	(___xxtofl@arg+1)^0,f,c
  1382   0015BC  5015               	movf	(??___xxtofl+2)^0,w,c
  1383   0015BE  121B               	iorwf	(___xxtofl@arg+2)^0,f,c
  1384   0015C0  5016               	movf	(??___xxtofl+3)^0,w,c
  1385   0015C2  121C               	iorwf	(___xxtofl@arg+3)^0,f,c
  1386   0015C4  5017               	movf	___xxtofl@sign^0,w,c
  1387   0015C6  B4D8               	btfsc	status,2,c
  1388   0015C8  EFE8  F00A         	goto	u2281
  1389   0015CC  EFEA  F00A         	goto	u2280
  1390   0015D0                     u2281:
  1391   0015D0  EFF2  F00A         	goto	l2266
  1392   0015D4                     u2280:
  1393   0015D4  BE12               	btfsc	(___xxtofl@val+3)^0,7,c
  1394   0015D6  EFF1  F00A         	goto	u2290
  1395   0015DA  EFEF  F00A         	goto	u2291
  1396   0015DE                     u2291:
  1397   0015DE  EFF2  F00A         	goto	l2266
  1398   0015E2                     u2290:
  1399   0015E2  8E1C               	bsf	(___xxtofl@arg+3)^0,7,c
  1400   0015E4                     l2266:
  1401   0015E4  C019  F00F         	movff	___xxtofl@arg,?___xxtofl
  1402   0015E8  C01A  F010         	movff	___xxtofl@arg+1,?___xxtofl+1
  1403   0015EC  C01B  F011         	movff	___xxtofl@arg+2,?___xxtofl+2
  1404   0015F0  C01C  F012         	movff	___xxtofl@arg+3,?___xxtofl+3
  1405   0015F4                     l847:
  1406   0015F4  0012               	return		;funcret
  1407   0015F6                     __end_of___xxtofl:
  1408                           	callstack 0
  1409                           
  1410 ;; *************** function ___fltol *****************
  1411 ;; Defined at:
  1412 ;;		line 43 in file "C:\Program Files\Microchip\xc8\v2.50\pic\sources\c99\common\fltol.c"
  1413 ;; Parameters:    Size  Location     Type
  1414 ;;  f1              4   94[COMRAM] unsigned char 
  1415 ;; Auto vars:     Size  Location     Type
  1416 ;;  exp1            1  103[COMRAM] unsigned char 
  1417 ;;  sign1           1  102[COMRAM] unsigned char 
  1418 ;; Return value:  Size  Location     Type
  1419 ;;                  4   94[COMRAM] long 
  1420 ;; Registers used:
  1421 ;;		wreg, status,2, status,0
  1422 ;; Tracked objects:
  1423 ;;		On entry : 0/0
  1424 ;;		On exit  : 0/0
  1425 ;;		Unchanged: 0/0
  1426 ;; Data sizes:     COMRAM   BANK0   BANK1   BANK2   BANK3   BANK4   BANK5
  1427 ;;      Params:         4       0       0       0       0       0       0
  1428 ;;      Locals:         2       0       0       0       0       0       0
  1429 ;;      Temps:          4       0       0       0       0       0       0
  1430 ;;      Totals:        10       0       0       0       0       0       0
  1431 ;;Total ram usage:       10 bytes
  1432 ;; Hardware stack levels used: 1
  1433 ;; Hardware stack levels required when called: 5
  1434 ;; This function calls:
  1435 ;;		Nothing
  1436 ;; This function is called by:
  1437 ;;		_set_servo_angle
  1438 ;;		_VR_value_to_servo_angle
  1439 ;; This function uses a non-reentrant model
  1440 ;;
  1441                           
  1442                           	psect	text3
  1443   001784                     __ptext3:
  1444                           	callstack 0
  1445   001784                     ___fltol:
  1446                           	callstack 24
  1447   001784  3461               	rlcf	(___fltol@f1+2)^0,w,c
  1448   001786  3462               	rlcf	(___fltol@f1+3)^0,w,c
  1449   001788  6E68               	movwf	___fltol@exp1^0,c
  1450   00178A  5068               	movf	___fltol@exp1^0,w,c
  1451   00178C  A4D8               	btfss	status,2,c
  1452   00178E  EFCB  F00B         	goto	u2131
  1453   001792  EFCD  F00B         	goto	u2130
  1454   001796                     u2131:
  1455   001796  EFD7  F00B         	goto	l2186
  1456   00179A                     u2130:
  1457   00179A                     l2182:
  1458   00179A  0E00               	movlw	0
  1459   00179C  6E5F               	movwf	?___fltol^0,c
  1460   00179E  0E00               	movlw	0
  1461   0017A0  6E60               	movwf	(?___fltol+1)^0,c
  1462   0017A2  0E00               	movlw	0
  1463   0017A4  6E61               	movwf	(?___fltol+2)^0,c
  1464   0017A6  0E00               	movlw	0
  1465   0017A8  6E62               	movwf	(?___fltol+3)^0,c
  1466   0017AA  EF44  F00C         	goto	l486
  1467   0017AE                     l2186:
  1468   0017AE  C05F  F063         	movff	___fltol@f1,??___fltol
  1469   0017B2  C060  F064         	movff	___fltol@f1+1,??___fltol+1
  1470   0017B6  C061  F065         	movff	___fltol@f1+2,??___fltol+2
  1471   0017BA  C062  F066         	movff	___fltol@f1+3,??___fltol+3
  1472   0017BE  0E20               	movlw	32
  1473   0017C0  EFE7  F00B         	goto	u2140
  1474   0017C4                     u2145:
  1475   0017C4  90D8               	bcf	status,0,c
  1476   0017C6  3266               	rrcf	(??___fltol+3)^0,f,c
  1477   0017C8  3265               	rrcf	(??___fltol+2)^0,f,c
  1478   0017CA  3264               	rrcf	(??___fltol+1)^0,f,c
  1479   0017CC  3263               	rrcf	??___fltol^0,f,c
  1480   0017CE                     u2140:
  1481   0017CE  2EE8               	decfsz	wreg,f,c
  1482   0017D0  EFE2  F00B         	goto	u2145
  1483   0017D4  5063               	movf	??___fltol^0,w,c
  1484   0017D6  6E67               	movwf	___fltol@sign1^0,c
  1485   0017D8  8E61               	bsf	(___fltol@f1+2)^0,7,c
  1486   0017DA  0EFF               	movlw	255
  1487   0017DC  165F               	andwf	___fltol@f1^0,f,c
  1488   0017DE  0EFF               	movlw	255
  1489   0017E0  1660               	andwf	(___fltol@f1+1)^0,f,c
  1490   0017E2  0EFF               	movlw	255
  1491   0017E4  1661               	andwf	(___fltol@f1+2)^0,f,c
  1492   0017E6  0E00               	movlw	0
  1493   0017E8  1662               	andwf	(___fltol@f1+3)^0,f,c
  1494   0017EA  0E96               	movlw	150
  1495   0017EC  5E68               	subwf	___fltol@exp1^0,f,c
  1496   0017EE  BE68               	btfsc	___fltol@exp1^0,7,c
  1497   0017F0  EFFE  F00B         	goto	u2150
  1498   0017F4  EFFC  F00B         	goto	u2151
  1499   0017F8                     u2151:
  1500   0017F8  EF14  F00C         	goto	l2206
  1501   0017FC                     u2150:
  1502   0017FC  5068               	movf	___fltol@exp1^0,w,c
  1503   0017FE  0A80               	xorlw	128
  1504   001800  0F97               	addlw	151
  1505   001802  B0D8               	btfsc	status,0,c
  1506   001804  EF06  F00C         	goto	u2161
  1507   001808  EF08  F00C         	goto	u2160
  1508   00180C                     u2161:
  1509   00180C  EF0A  F00C         	goto	l2202
  1510   001810                     u2160:
  1511   001810  EFCD  F00B         	goto	l2182
  1512   001814                     l2202:
  1513   001814  90D8               	bcf	status,0,c
  1514   001816  3262               	rrcf	(___fltol@f1+3)^0,f,c
  1515   001818  3261               	rrcf	(___fltol@f1+2)^0,f,c
  1516   00181A  3260               	rrcf	(___fltol@f1+1)^0,f,c
  1517   00181C  325F               	rrcf	___fltol@f1^0,f,c
  1518   00181E  3E68               	incfsz	___fltol@exp1^0,f,c
  1519   001820  EF0A  F00C         	goto	l2202
  1520   001824  EF2C  F00C         	goto	l2216
  1521   001828                     l2206:
  1522   001828  0E1F               	movlw	31
  1523   00182A  6468               	cpfsgt	___fltol@exp1^0,c
  1524   00182C  EF1A  F00C         	goto	u2171
  1525   001830  EF1C  F00C         	goto	u2170
  1526   001834                     u2171:
  1527   001834  EF24  F00C         	goto	l2214
  1528   001838                     u2170:
  1529   001838  EFCD  F00B         	goto	l2182
  1530   00183C                     l2212:
  1531   00183C  90D8               	bcf	status,0,c
  1532   00183E  365F               	rlcf	___fltol@f1^0,f,c
  1533   001840  3660               	rlcf	(___fltol@f1+1)^0,f,c
  1534   001842  3661               	rlcf	(___fltol@f1+2)^0,f,c
  1535   001844  3662               	rlcf	(___fltol@f1+3)^0,f,c
  1536   001846  0668               	decf	___fltol@exp1^0,f,c
  1537   001848                     l2214:
  1538   001848  5068               	movf	___fltol@exp1^0,w,c
  1539   00184A  A4D8               	btfss	status,2,c
  1540   00184C  EF2A  F00C         	goto	u2181
  1541   001850  EF2C  F00C         	goto	u2180
  1542   001854                     u2181:
  1543   001854  EF1E  F00C         	goto	l2212
  1544   001858                     u2180:
  1545   001858                     l2216:
  1546   001858  5067               	movf	___fltol@sign1^0,w,c
  1547   00185A  B4D8               	btfsc	status,2,c
  1548   00185C  EF32  F00C         	goto	u2191
  1549   001860  EF34  F00C         	goto	u2190
  1550   001864                     u2191:
  1551   001864  EF3C  F00C         	goto	l2220
  1552   001868                     u2190:
  1553   001868  1E62               	comf	(___fltol@f1+3)^0,f,c
  1554   00186A  1E61               	comf	(___fltol@f1+2)^0,f,c
  1555   00186C  1E60               	comf	(___fltol@f1+1)^0,f,c
  1556   00186E  6C5F               	negf	___fltol@f1^0,c
  1557   001870  0E00               	movlw	0
  1558   001872  2260               	addwfc	(___fltol@f1+1)^0,f,c
  1559   001874  2261               	addwfc	(___fltol@f1+2)^0,f,c
  1560   001876  2262               	addwfc	(___fltol@f1+3)^0,f,c
  1561   001878                     l2220:
  1562   001878  C05F  F05F         	movff	___fltol@f1,?___fltol
  1563   00187C  C060  F060         	movff	___fltol@f1+1,?___fltol+1
  1564   001880  C061  F061         	movff	___fltol@f1+2,?___fltol+2
  1565   001884  C062  F062         	movff	___fltol@f1+3,?___fltol+3
  1566   001888                     l486:
  1567   001888  0012               	return		;funcret
  1568   00188A                     __end_of___fltol:
  1569                           	callstack 0
  1570                           
  1571 ;; *************** function ___flmul *****************
  1572 ;; Defined at:
  1573 ;;		line 8 in file "C:\Program Files\Microchip\xc8\v2.50\pic\sources\c99\common\sprcmul.c"
  1574 ;; Parameters:    Size  Location     Type
  1575 ;;  b               4   53[COMRAM] long 
  1576 ;;  a               4   57[COMRAM] long 
  1577 ;; Auto vars:     Size  Location     Type
  1578 ;;  prod            4   72[COMRAM] struct .
  1579 ;;  grs             4   66[COMRAM] unsigned long 
  1580 ;;  temp            2   76[COMRAM] struct .
  1581 ;;  bexp            1   71[COMRAM] unsigned char 
  1582 ;;  aexp            1   70[COMRAM] unsigned char 
  1583 ;;  sign            1   65[COMRAM] unsigned char 
  1584 ;; Return value:  Size  Location     Type
  1585 ;;                  4   53[COMRAM] unsigned char 
  1586 ;; Registers used:
  1587 ;;		wreg, status,2, status,0, prodl, prodh
  1588 ;; Tracked objects:
  1589 ;;		On entry : 0/0
  1590 ;;		On exit  : 0/0
  1591 ;;		Unchanged: 0/0
  1592 ;; Data sizes:     COMRAM   BANK0   BANK1   BANK2   BANK3   BANK4   BANK5
  1593 ;;      Params:         8       0       0       0       0       0       0
  1594 ;;      Locals:        13       0       0       0       0       0       0
  1595 ;;      Temps:          4       0       0       0       0       0       0
  1596 ;;      Totals:        25       0       0       0       0       0       0
  1597 ;;Total ram usage:       25 bytes
  1598 ;; Hardware stack levels used: 1
  1599 ;; Hardware stack levels required when called: 5
  1600 ;; This function calls:
  1601 ;;		Nothing
  1602 ;; This function is called by:
  1603 ;;		_set_servo_angle
  1604 ;;		_VR_value_to_servo_angle
  1605 ;; This function uses a non-reentrant model
  1606 ;;
  1607                           
  1608                           	psect	text4
  1609   000AB8                     __ptext4:
  1610                           	callstack 0
  1611   000AB8                     ___flmul:
  1612                           	callstack 24
  1613   000AB8  5039               	movf	(___flmul@b+3)^0,w,c
  1614   000ABA  0B80               	andlw	128
  1615   000ABC  6E42               	movwf	___flmul@sign^0,c
  1616   000ABE  5039               	movf	(___flmul@b+3)^0,w,c
  1617   000AC0  2439               	addwf	(___flmul@b+3)^0,w,c
  1618   000AC2  6E48               	movwf	___flmul@bexp^0,c
  1619   000AC4  AE38               	btfss	(___flmul@b+2)^0,7,c
  1620   000AC6  EF67  F005         	goto	u1941
  1621   000ACA  EF69  F005         	goto	u1940
  1622   000ACE                     u1941:
  1623   000ACE  EF6A  F005         	goto	l2058
  1624   000AD2                     u1940:
  1625   000AD2  8048               	bsf	___flmul@bexp^0,0,c
  1626   000AD4                     l2058:
  1627   000AD4  5048               	movf	___flmul@bexp^0,w,c
  1628   000AD6  B4D8               	btfsc	status,2,c
  1629   000AD8  EF70  F005         	goto	u1951
  1630   000ADC  EF72  F005         	goto	u1950
  1631   000AE0                     u1951:
  1632   000AE0  EF85  F005         	goto	l2066
  1633   000AE4                     u1950:
  1634   000AE4  2848               	incf	___flmul@bexp^0,w,c
  1635   000AE6  A4D8               	btfss	status,2,c
  1636   000AE8  EF78  F005         	goto	u1961
  1637   000AEC  EF7A  F005         	goto	u1960
  1638   000AF0                     u1961:
  1639   000AF0  EF82  F005         	goto	l2064
  1640   000AF4                     u1960:
  1641   000AF4  0E00               	movlw	0
  1642   000AF6  6E36               	movwf	___flmul@b^0,c
  1643   000AF8  0E00               	movlw	0
  1644   000AFA  6E37               	movwf	(___flmul@b+1)^0,c
  1645   000AFC  0E00               	movlw	0
  1646   000AFE  6E38               	movwf	(___flmul@b+2)^0,c
  1647   000B00  0E00               	movlw	0
  1648   000B02  6E39               	movwf	(___flmul@b+3)^0,c
  1649   000B04                     l2064:
  1650   000B04  8E38               	bsf	(___flmul@b+2)^0,7,c
  1651   000B06  EF8D  F005         	goto	l2068
  1652   000B0A                     l2066:
  1653   000B0A  0E00               	movlw	0
  1654   000B0C  6E36               	movwf	___flmul@b^0,c
  1655   000B0E  0E00               	movlw	0
  1656   000B10  6E37               	movwf	(___flmul@b+1)^0,c
  1657   000B12  0E00               	movlw	0
  1658   000B14  6E38               	movwf	(___flmul@b+2)^0,c
  1659   000B16  0E00               	movlw	0
  1660   000B18  6E39               	movwf	(___flmul@b+3)^0,c
  1661   000B1A                     l2068:
  1662   000B1A  503D               	movf	(___flmul@a+3)^0,w,c
  1663   000B1C  0B80               	andlw	128
  1664   000B1E  1A42               	xorwf	___flmul@sign^0,f,c
  1665   000B20  503D               	movf	(___flmul@a+3)^0,w,c
  1666   000B22  243D               	addwf	(___flmul@a+3)^0,w,c
  1667   000B24  6E47               	movwf	___flmul@aexp^0,c
  1668   000B26  AE3C               	btfss	(___flmul@a+2)^0,7,c
  1669   000B28  EF98  F005         	goto	u1971
  1670   000B2C  EF9A  F005         	goto	u1970
  1671   000B30                     u1971:
  1672   000B30  EF9B  F005         	goto	l2076
  1673   000B34                     u1970:
  1674   000B34  8047               	bsf	___flmul@aexp^0,0,c
  1675   000B36                     l2076:
  1676   000B36  5047               	movf	___flmul@aexp^0,w,c
  1677   000B38  B4D8               	btfsc	status,2,c
  1678   000B3A  EFA1  F005         	goto	u1981
  1679   000B3E  EFA3  F005         	goto	u1980
  1680   000B42                     u1981:
  1681   000B42  EFB6  F005         	goto	l2084
  1682   000B46                     u1980:
  1683   000B46  2847               	incf	___flmul@aexp^0,w,c
  1684   000B48  A4D8               	btfss	status,2,c
  1685   000B4A  EFA9  F005         	goto	u1991
  1686   000B4E  EFAB  F005         	goto	u1990
  1687   000B52                     u1991:
  1688   000B52  EFB3  F005         	goto	l2082
  1689   000B56                     u1990:
  1690   000B56  0E00               	movlw	0
  1691   000B58  6E3A               	movwf	___flmul@a^0,c
  1692   000B5A  0E00               	movlw	0
  1693   000B5C  6E3B               	movwf	(___flmul@a+1)^0,c
  1694   000B5E  0E00               	movlw	0
  1695   000B60  6E3C               	movwf	(___flmul@a+2)^0,c
  1696   000B62  0E00               	movlw	0
  1697   000B64  6E3D               	movwf	(___flmul@a+3)^0,c
  1698   000B66                     l2082:
  1699   000B66  8E3C               	bsf	(___flmul@a+2)^0,7,c
  1700   000B68  EFBE  F005         	goto	l803
  1701   000B6C                     l2084:
  1702   000B6C  0E00               	movlw	0
  1703   000B6E  6E3A               	movwf	___flmul@a^0,c
  1704   000B70  0E00               	movlw	0
  1705   000B72  6E3B               	movwf	(___flmul@a+1)^0,c
  1706   000B74  0E00               	movlw	0
  1707   000B76  6E3C               	movwf	(___flmul@a+2)^0,c
  1708   000B78  0E00               	movlw	0
  1709   000B7A  6E3D               	movwf	(___flmul@a+3)^0,c
  1710   000B7C                     l803:
  1711   000B7C  5047               	movf	___flmul@aexp^0,w,c
  1712   000B7E  B4D8               	btfsc	status,2,c
  1713   000B80  EFC4  F005         	goto	u2001
  1714   000B84  EFC6  F005         	goto	u2000
  1715   000B88                     u2001:
  1716   000B88  EFCE  F005         	goto	l2088
  1717   000B8C                     u2000:
  1718   000B8C  5048               	movf	___flmul@bexp^0,w,c
  1719   000B8E  A4D8               	btfss	status,2,c
  1720   000B90  EFCC  F005         	goto	u2011
  1721   000B94  EFCE  F005         	goto	u2010
  1722   000B98                     u2011:
  1723   000B98  EFD8  F005         	goto	l2092
  1724   000B9C                     u2010:
  1725   000B9C                     l2088:
  1726   000B9C  0E00               	movlw	0
  1727   000B9E  6E36               	movwf	?___flmul^0,c
  1728   000BA0  0E00               	movlw	0
  1729   000BA2  6E37               	movwf	(?___flmul+1)^0,c
  1730   000BA4  0E00               	movlw	0
  1731   000BA6  6E38               	movwf	(?___flmul+2)^0,c
  1732   000BA8  0E00               	movlw	0
  1733   000BAA  6E39               	movwf	(?___flmul+3)^0,c
  1734   000BAC  EF6E  F007         	goto	l807
  1735   000BB0                     l2092:
  1736   000BB0  503C               	movf	(___flmul@a+2)^0,w,c
  1737   000BB2  0236               	mulwf	___flmul@b^0,c
  1738   000BB4  CFF3 F04D          	movff	prodl,___flmul@temp
  1739   000BB8  CFF4 F04E          	movff	prodh,___flmul@temp+1
  1740   000BBC  504D               	movf	___flmul@temp^0,w,c
  1741   000BBE  6E43               	movwf	___flmul@grs^0,c
  1742   000BC0  6A44               	clrf	(___flmul@grs+1)^0,c
  1743   000BC2  6A45               	clrf	(___flmul@grs+2)^0,c
  1744   000BC4  6A46               	clrf	(___flmul@grs+3)^0,c
  1745   000BC6  504E               	movf	(___flmul@temp+1)^0,w,c
  1746   000BC8  6E49               	movwf	___flmul@prod^0,c
  1747   000BCA  6A4A               	clrf	(___flmul@prod+1)^0,c
  1748   000BCC  6A4B               	clrf	(___flmul@prod+2)^0,c
  1749   000BCE  6A4C               	clrf	(___flmul@prod+3)^0,c
  1750   000BD0  503B               	movf	(___flmul@a+1)^0,w,c
  1751   000BD2  0237               	mulwf	(___flmul@b+1)^0,c
  1752   000BD4  CFF3 F04D          	movff	prodl,___flmul@temp
  1753   000BD8  CFF4 F04E          	movff	prodh,___flmul@temp+1
  1754   000BDC  504D               	movf	___flmul@temp^0,w,c
  1755   000BDE  2643               	addwf	___flmul@grs^0,f,c
  1756   000BE0  0E00               	movlw	0
  1757   000BE2  2244               	addwfc	(___flmul@grs+1)^0,f,c
  1758   000BE4  2245               	addwfc	(___flmul@grs+2)^0,f,c
  1759   000BE6  2246               	addwfc	(___flmul@grs+3)^0,f,c
  1760   000BE8  504E               	movf	(___flmul@temp+1)^0,w,c
  1761   000BEA  2649               	addwf	___flmul@prod^0,f,c
  1762   000BEC  0E00               	movlw	0
  1763   000BEE  224A               	addwfc	(___flmul@prod+1)^0,f,c
  1764   000BF0  224B               	addwfc	(___flmul@prod+2)^0,f,c
  1765   000BF2  224C               	addwfc	(___flmul@prod+3)^0,f,c
  1766   000BF4  503A               	movf	___flmul@a^0,w,c
  1767   000BF6  0238               	mulwf	(___flmul@b+2)^0,c
  1768   000BF8  CFF3 F04D          	movff	prodl,___flmul@temp
  1769   000BFC  CFF4 F04E          	movff	prodh,___flmul@temp+1
  1770   000C00  504D               	movf	___flmul@temp^0,w,c
  1771   000C02  2643               	addwf	___flmul@grs^0,f,c
  1772   000C04  0E00               	movlw	0
  1773   000C06  2244               	addwfc	(___flmul@grs+1)^0,f,c
  1774   000C08  2245               	addwfc	(___flmul@grs+2)^0,f,c
  1775   000C0A  2246               	addwfc	(___flmul@grs+3)^0,f,c
  1776   000C0C  504E               	movf	(___flmul@temp+1)^0,w,c
  1777   000C0E  2649               	addwf	___flmul@prod^0,f,c
  1778   000C10  0E00               	movlw	0
  1779   000C12  224A               	addwfc	(___flmul@prod+1)^0,f,c
  1780   000C14  224B               	addwfc	(___flmul@prod+2)^0,f,c
  1781   000C16  224C               	addwfc	(___flmul@prod+3)^0,f,c
  1782   000C18  C045  F046         	movff	___flmul@grs+2,___flmul@grs+3
  1783   000C1C  C044  F045         	movff	___flmul@grs+1,___flmul@grs+2
  1784   000C20  C043  F044         	movff	___flmul@grs,___flmul@grs+1
  1785   000C24  6A43               	clrf	___flmul@grs^0,c
  1786   000C26  503A               	movf	___flmul@a^0,w,c
  1787   000C28  0237               	mulwf	(___flmul@b+1)^0,c
  1788   000C2A  CFF3 F04D          	movff	prodl,___flmul@temp
  1789   000C2E  CFF4 F04E          	movff	prodh,___flmul@temp+1
  1790   000C32  504D               	movf	___flmul@temp^0,w,c
  1791   000C34  2643               	addwf	___flmul@grs^0,f,c
  1792   000C36  504E               	movf	(___flmul@temp+1)^0,w,c
  1793   000C38  2244               	addwfc	(___flmul@grs+1)^0,f,c
  1794   000C3A  0E00               	movlw	0
  1795   000C3C  2245               	addwfc	(___flmul@grs+2)^0,f,c
  1796   000C3E  0E00               	movlw	0
  1797   000C40  2246               	addwfc	(___flmul@grs+3)^0,f,c
  1798   000C42  503B               	movf	(___flmul@a+1)^0,w,c
  1799   000C44  0236               	mulwf	___flmul@b^0,c
  1800   000C46  CFF3 F04D          	movff	prodl,___flmul@temp
  1801   000C4A  CFF4 F04E          	movff	prodh,___flmul@temp+1
  1802   000C4E  504D               	movf	___flmul@temp^0,w,c
  1803   000C50  2643               	addwf	___flmul@grs^0,f,c
  1804   000C52  504E               	movf	(___flmul@temp+1)^0,w,c
  1805   000C54  2244               	addwfc	(___flmul@grs+1)^0,f,c
  1806   000C56  0E00               	movlw	0
  1807   000C58  2245               	addwfc	(___flmul@grs+2)^0,f,c
  1808   000C5A  0E00               	movlw	0
  1809   000C5C  2246               	addwfc	(___flmul@grs+3)^0,f,c
  1810   000C5E  C045  F046         	movff	___flmul@grs+2,___flmul@grs+3
  1811   000C62  C044  F045         	movff	___flmul@grs+1,___flmul@grs+2
  1812   000C66  C043  F044         	movff	___flmul@grs,___flmul@grs+1
  1813   000C6A  6A43               	clrf	___flmul@grs^0,c
  1814   000C6C  503A               	movf	___flmul@a^0,w,c
  1815   000C6E  0236               	mulwf	___flmul@b^0,c
  1816   000C70  CFF3 F04D          	movff	prodl,___flmul@temp
  1817   000C74  CFF4 F04E          	movff	prodh,___flmul@temp+1
  1818   000C78  504D               	movf	___flmul@temp^0,w,c
  1819   000C7A  2643               	addwf	___flmul@grs^0,f,c
  1820   000C7C  504E               	movf	(___flmul@temp+1)^0,w,c
  1821   000C7E  2244               	addwfc	(___flmul@grs+1)^0,f,c
  1822   000C80  0E00               	movlw	0
  1823   000C82  2245               	addwfc	(___flmul@grs+2)^0,f,c
  1824   000C84  0E00               	movlw	0
  1825   000C86  2246               	addwfc	(___flmul@grs+3)^0,f,c
  1826   000C88  503C               	movf	(___flmul@a+2)^0,w,c
  1827   000C8A  0237               	mulwf	(___flmul@b+1)^0,c
  1828   000C8C  CFF3 F04D          	movff	prodl,___flmul@temp
  1829   000C90  CFF4 F04E          	movff	prodh,___flmul@temp+1
  1830   000C94  504D               	movf	___flmul@temp^0,w,c
  1831   000C96  2649               	addwf	___flmul@prod^0,f,c
  1832   000C98  504E               	movf	(___flmul@temp+1)^0,w,c
  1833   000C9A  224A               	addwfc	(___flmul@prod+1)^0,f,c
  1834   000C9C  0E00               	movlw	0
  1835   000C9E  224B               	addwfc	(___flmul@prod+2)^0,f,c
  1836   000CA0  0E00               	movlw	0
  1837   000CA2  224C               	addwfc	(___flmul@prod+3)^0,f,c
  1838   000CA4  503B               	movf	(___flmul@a+1)^0,w,c
  1839   000CA6  0238               	mulwf	(___flmul@b+2)^0,c
  1840   000CA8  CFF3 F04D          	movff	prodl,___flmul@temp
  1841   000CAC  CFF4 F04E          	movff	prodh,___flmul@temp+1
  1842   000CB0  504D               	movf	___flmul@temp^0,w,c
  1843   000CB2  2649               	addwf	___flmul@prod^0,f,c
  1844   000CB4  504E               	movf	(___flmul@temp+1)^0,w,c
  1845   000CB6  224A               	addwfc	(___flmul@prod+1)^0,f,c
  1846   000CB8  0E00               	movlw	0
  1847   000CBA  224B               	addwfc	(___flmul@prod+2)^0,f,c
  1848   000CBC  0E00               	movlw	0
  1849   000CBE  224C               	addwfc	(___flmul@prod+3)^0,f,c
  1850   000CC0  503C               	movf	(___flmul@a+2)^0,w,c
  1851   000CC2  0238               	mulwf	(___flmul@b+2)^0,c
  1852   000CC4  CFF3 F04D          	movff	prodl,___flmul@temp
  1853   000CC8  CFF4 F04E          	movff	prodh,___flmul@temp+1
  1854   000CCC  504D               	movf	___flmul@temp^0,w,c
  1855   000CCE  6E3E               	movwf	??___flmul^0,c
  1856   000CD0  504E               	movf	(___flmul@temp+1)^0,w,c
  1857   000CD2  6E3F               	movwf	(??___flmul+1)^0,c
  1858   000CD4  6A40               	clrf	(??___flmul+2)^0,c
  1859   000CD6  6A41               	clrf	(??___flmul+3)^0,c
  1860   000CD8  C040  F041         	movff	??___flmul+2,??___flmul+3
  1861   000CDC  C03F  F040         	movff	??___flmul+1,??___flmul+2
  1862   000CE0  C03E  F03F         	movff	??___flmul,??___flmul+1
  1863   000CE4  6A3E               	clrf	??___flmul^0,c
  1864   000CE6  503E               	movf	??___flmul^0,w,c
  1865   000CE8  2649               	addwf	___flmul@prod^0,f,c
  1866   000CEA  503F               	movf	(??___flmul+1)^0,w,c
  1867   000CEC  224A               	addwfc	(___flmul@prod+1)^0,f,c
  1868   000CEE  5040               	movf	(??___flmul+2)^0,w,c
  1869   000CF0  224B               	addwfc	(___flmul@prod+2)^0,f,c
  1870   000CF2  5041               	movf	(??___flmul+3)^0,w,c
  1871   000CF4  224C               	addwfc	(___flmul@prod+3)^0,f,c
  1872   000CF6  C043  F03E         	movff	___flmul@grs,??___flmul
  1873   000CFA  C044  F03F         	movff	___flmul@grs+1,??___flmul+1
  1874   000CFE  C045  F040         	movff	___flmul@grs+2,??___flmul+2
  1875   000D02  C046  F041         	movff	___flmul@grs+3,??___flmul+3
  1876   000D06  0E19               	movlw	25
  1877   000D08  EF8B  F006         	goto	u2020
  1878   000D0C                     u2025:
  1879   000D0C  90D8               	bcf	status,0,c
  1880   000D0E  3241               	rrcf	(??___flmul+3)^0,f,c
  1881   000D10  3240               	rrcf	(??___flmul+2)^0,f,c
  1882   000D12  323F               	rrcf	(??___flmul+1)^0,f,c
  1883   000D14  323E               	rrcf	??___flmul^0,f,c
  1884   000D16                     u2020:
  1885   000D16  2EE8               	decfsz	wreg,f,c
  1886   000D18  EF86  F006         	goto	u2025
  1887   000D1C  503E               	movf	??___flmul^0,w,c
  1888   000D1E  2649               	addwf	___flmul@prod^0,f,c
  1889   000D20  503F               	movf	(??___flmul+1)^0,w,c
  1890   000D22  224A               	addwfc	(___flmul@prod+1)^0,f,c
  1891   000D24  5040               	movf	(??___flmul+2)^0,w,c
  1892   000D26  224B               	addwfc	(___flmul@prod+2)^0,f,c
  1893   000D28  5041               	movf	(??___flmul+3)^0,w,c
  1894   000D2A  224C               	addwfc	(___flmul@prod+3)^0,f,c
  1895   000D2C  C045  F046         	movff	___flmul@grs+2,___flmul@grs+3
  1896   000D30  C044  F045         	movff	___flmul@grs+1,___flmul@grs+2
  1897   000D34  C043  F044         	movff	___flmul@grs,___flmul@grs+1
  1898   000D38  6A43               	clrf	___flmul@grs^0,c
  1899   000D3A  5047               	movf	___flmul@aexp^0,w,c
  1900   000D3C  C048  F03E         	movff	___flmul@bexp,??___flmul
  1901   000D40  6A3F               	clrf	(??___flmul+1)^0,c
  1902   000D42  263E               	addwf	??___flmul^0,f,c
  1903   000D44  0E00               	movlw	0
  1904   000D46  223F               	addwfc	(??___flmul+1)^0,f,c
  1905   000D48  0E82               	movlw	130
  1906   000D4A  243E               	addwf	??___flmul^0,w,c
  1907   000D4C  6E4D               	movwf	___flmul@temp^0,c
  1908   000D4E  0EFF               	movlw	255
  1909   000D50  203F               	addwfc	(??___flmul+1)^0,w,c
  1910   000D52  6E4E               	movwf	(___flmul@temp+1)^0,c
  1911   000D54  EFC1  F006         	goto	l2140
  1912   000D58                     l2134:
  1913   000D58  90D8               	bcf	status,0,c
  1914   000D5A  3649               	rlcf	___flmul@prod^0,f,c
  1915   000D5C  364A               	rlcf	(___flmul@prod+1)^0,f,c
  1916   000D5E  364B               	rlcf	(___flmul@prod+2)^0,f,c
  1917   000D60  364C               	rlcf	(___flmul@prod+3)^0,f,c
  1918   000D62  AE46               	btfss	(___flmul@grs+3)^0,7,c
  1919   000D64  EFB6  F006         	goto	u2031
  1920   000D68  EFB8  F006         	goto	u2030
  1921   000D6C                     u2031:
  1922   000D6C  EFB9  F006         	goto	l810
  1923   000D70                     u2030:
  1924   000D70  8049               	bsf	___flmul@prod^0,0,c
  1925   000D72                     l810:
  1926   000D72  90D8               	bcf	status,0,c
  1927   000D74  3643               	rlcf	___flmul@grs^0,f,c
  1928   000D76  3644               	rlcf	(___flmul@grs+1)^0,f,c
  1929   000D78  3645               	rlcf	(___flmul@grs+2)^0,f,c
  1930   000D7A  3646               	rlcf	(___flmul@grs+3)^0,f,c
  1931   000D7C  064D               	decf	___flmul@temp^0,f,c
  1932   000D7E  A0D8               	btfss	status,0,c
  1933   000D80  064E               	decf	(___flmul@temp+1)^0,f,c
  1934   000D82                     l2140:
  1935   000D82  AE4B               	btfss	(___flmul@prod+2)^0,7,c
  1936   000D84  EFC6  F006         	goto	u2041
  1937   000D88  EFC8  F006         	goto	u2040
  1938   000D8C                     u2041:
  1939   000D8C  EFAC  F006         	goto	l2134
  1940   000D90                     u2040:
  1941   000D90  6A47               	clrf	___flmul@aexp^0,c
  1942   000D92  AE46               	btfss	(___flmul@grs+3)^0,7,c
  1943   000D94  EFCE  F006         	goto	u2051
  1944   000D98  EFD0  F006         	goto	u2050
  1945   000D9C                     u2051:
  1946   000D9C  EFF4  F006         	goto	l812
  1947   000DA0                     u2050:
  1948   000DA0  0EFF               	movlw	255
  1949   000DA2  1443               	andwf	___flmul@grs^0,w,c
  1950   000DA4  6E3E               	movwf	??___flmul^0,c
  1951   000DA6  0EFF               	movlw	255
  1952   000DA8  1444               	andwf	(___flmul@grs+1)^0,w,c
  1953   000DAA  6E3F               	movwf	(??___flmul+1)^0,c
  1954   000DAC  0EFF               	movlw	255
  1955   000DAE  1445               	andwf	(___flmul@grs+2)^0,w,c
  1956   000DB0  6E40               	movwf	(??___flmul+2)^0,c
  1957   000DB2  0E7F               	movlw	127
  1958   000DB4  1446               	andwf	(___flmul@grs+3)^0,w,c
  1959   000DB6  6E41               	movwf	(??___flmul+3)^0,c
  1960   000DB8  503E               	movf	??___flmul^0,w,c
  1961   000DBA  103F               	iorwf	(??___flmul+1)^0,w,c
  1962   000DBC  1040               	iorwf	(??___flmul+2)^0,w,c
  1963   000DBE  1041               	iorwf	(??___flmul+3)^0,w,c
  1964   000DC0  B4D8               	btfsc	status,2,c
  1965   000DC2  EFE5  F006         	goto	u2061
  1966   000DC6  EFE7  F006         	goto	u2060
  1967   000DCA                     u2061:
  1968   000DCA  EFEB  F006         	goto	l813
  1969   000DCE                     u2060:
  1970   000DCE                     l2144:
  1971   000DCE  0E01               	movlw	1
  1972   000DD0  6E47               	movwf	___flmul@aexp^0,c
  1973   000DD2  EFF4  F006         	goto	l812
  1974   000DD6                     l813:
  1975   000DD6  A049               	btfss	___flmul@prod^0,0,c
  1976   000DD8  EFF0  F006         	goto	u2071
  1977   000DDC  EFF2  F006         	goto	u2070
  1978   000DE0                     u2071:
  1979   000DE0  EFF4  F006         	goto	l812
  1980   000DE4                     u2070:
  1981   000DE4  EFE7  F006         	goto	l2144
  1982   000DE8                     l812:
  1983   000DE8  5047               	movf	___flmul@aexp^0,w,c
  1984   000DEA  B4D8               	btfsc	status,2,c
  1985   000DEC  EFFA  F006         	goto	u2081
  1986   000DF0  EFFC  F006         	goto	u2080
  1987   000DF4                     u2081:
  1988   000DF4  EF20  F007         	goto	l2156
  1989   000DF8                     u2080:
  1990   000DF8  0E01               	movlw	1
  1991   000DFA  2649               	addwf	___flmul@prod^0,f,c
  1992   000DFC  0E00               	movlw	0
  1993   000DFE  224A               	addwfc	(___flmul@prod+1)^0,f,c
  1994   000E00  224B               	addwfc	(___flmul@prod+2)^0,f,c
  1995   000E02  224C               	addwfc	(___flmul@prod+3)^0,f,c
  1996   000E04  A04C               	btfss	(___flmul@prod+3)^0,0,c
  1997   000E06  EF07  F007         	goto	u2091
  1998   000E0A  EF09  F007         	goto	u2090
  1999   000E0E                     u2091:
  2000   000E0E  EF20  F007         	goto	l2156
  2001   000E12                     u2090:
  2002   000E12  C049  F03E         	movff	___flmul@prod,??___flmul
  2003   000E16  C04A  F03F         	movff	___flmul@prod+1,??___flmul+1
  2004   000E1A  C04B  F040         	movff	___flmul@prod+2,??___flmul+2
  2005   000E1E  C04C  F041         	movff	___flmul@prod+3,??___flmul+3
  2006   000E22  3441               	rlcf	(??___flmul+3)^0,w,c
  2007   000E24  3241               	rrcf	(??___flmul+3)^0,f,c
  2008   000E26  3240               	rrcf	(??___flmul+2)^0,f,c
  2009   000E28  323F               	rrcf	(??___flmul+1)^0,f,c
  2010   000E2A  323E               	rrcf	??___flmul^0,f,c
  2011   000E2C  C03E  F049         	movff	??___flmul,___flmul@prod
  2012   000E30  C03F  F04A         	movff	??___flmul+1,___flmul@prod+1
  2013   000E34  C040  F04B         	movff	??___flmul+2,___flmul@prod+2
  2014   000E38  C041  F04C         	movff	??___flmul+3,___flmul@prod+3
  2015   000E3C  4A4D               	infsnz	___flmul@temp^0,f,c
  2016   000E3E  2A4E               	incf	(___flmul@temp+1)^0,f,c
  2017   000E40                     l2156:
  2018   000E40  BE4E               	btfsc	(___flmul@temp+1)^0,7,c
  2019   000E42  EF2B  F007         	goto	u2101
  2020   000E46  504E               	movf	(___flmul@temp+1)^0,w,c
  2021   000E48  E108               	bnz	u2100
  2022   000E4A  284D               	incf	___flmul@temp^0,w,c
  2023   000E4C  A0D8               	btfss	status,0,c
  2024   000E4E  EF2B  F007         	goto	u2101
  2025   000E52  EF2D  F007         	goto	u2100
  2026   000E56                     u2101:
  2027   000E56  EF37  F007         	goto	l2160
  2028   000E5A                     u2100:
  2029   000E5A  0E00               	movlw	0
  2030   000E5C  6E49               	movwf	___flmul@prod^0,c
  2031   000E5E  0E00               	movlw	0
  2032   000E60  6E4A               	movwf	(___flmul@prod+1)^0,c
  2033   000E62  0E80               	movlw	128
  2034   000E64  6E4B               	movwf	(___flmul@prod+2)^0,c
  2035   000E66  0E7F               	movlw	127
  2036   000E68  6E4C               	movwf	(___flmul@prod+3)^0,c
  2037   000E6A  EF64  F007         	goto	l2174
  2038   000E6E                     l2160:
  2039   000E6E  BE4E               	btfsc	(___flmul@temp+1)^0,7,c
  2040   000E70  EF44  F007         	goto	u2110
  2041   000E74  504E               	movf	(___flmul@temp+1)^0,w,c
  2042   000E76  E106               	bnz	u2111
  2043   000E78  044D               	decf	___flmul@temp^0,w,c
  2044   000E7A  B0D8               	btfsc	status,0,c
  2045   000E7C  EF42  F007         	goto	u2111
  2046   000E80  EF44  F007         	goto	u2110
  2047   000E84                     u2111:
  2048   000E84  EF4F  F007         	goto	l820
  2049   000E88                     u2110:
  2050   000E88  0E00               	movlw	0
  2051   000E8A  6E49               	movwf	___flmul@prod^0,c
  2052   000E8C  0E00               	movlw	0
  2053   000E8E  6E4A               	movwf	(___flmul@prod+1)^0,c
  2054   000E90  0E00               	movlw	0
  2055   000E92  6E4B               	movwf	(___flmul@prod+2)^0,c
  2056   000E94  0E00               	movlw	0
  2057   000E96  6E4C               	movwf	(___flmul@prod+3)^0,c
  2058   000E98  6A42               	clrf	___flmul@sign^0,c
  2059   000E9A  EF64  F007         	goto	l2174
  2060   000E9E                     l820:
  2061   000E9E  C04D  F048         	movff	___flmul@temp,___flmul@bexp
  2062   000EA2  0EFF               	movlw	255
  2063   000EA4  1649               	andwf	___flmul@prod^0,f,c
  2064   000EA6  0EFF               	movlw	255
  2065   000EA8  164A               	andwf	(___flmul@prod+1)^0,f,c
  2066   000EAA  0E7F               	movlw	127
  2067   000EAC  164B               	andwf	(___flmul@prod+2)^0,f,c
  2068   000EAE  0E00               	movlw	0
  2069   000EB0  164C               	andwf	(___flmul@prod+3)^0,f,c
  2070   000EB2  A048               	btfss	___flmul@bexp^0,0,c
  2071   000EB4  EF5E  F007         	goto	u2121
  2072   000EB8  EF60  F007         	goto	u2120
  2073   000EBC                     u2121:
  2074   000EBC  EF61  F007         	goto	l2172
  2075   000EC0                     u2120:
  2076   000EC0  8E4B               	bsf	(___flmul@prod+2)^0,7,c
  2077   000EC2                     l2172:
  2078   000EC2  90D8               	bcf	status,0,c
  2079   000EC4  3048               	rrcf	___flmul@bexp^0,w,c
  2080   000EC6  6E4C               	movwf	(___flmul@prod+3)^0,c
  2081   000EC8                     l2174:
  2082   000EC8  5042               	movf	___flmul@sign^0,w,c
  2083   000ECA  124C               	iorwf	(___flmul@prod+3)^0,f,c
  2084   000ECC  C049  F036         	movff	___flmul@prod,?___flmul
  2085   000ED0  C04A  F037         	movff	___flmul@prod+1,?___flmul+1
  2086   000ED4  C04B  F038         	movff	___flmul@prod+2,?___flmul+2
  2087   000ED8  C04C  F039         	movff	___flmul@prod+3,?___flmul+3
  2088   000EDC                     l807:
  2089   000EDC  0012               	return		;funcret
  2090   000EDE                     __end_of___flmul:
  2091                           	callstack 0
  2092                           
  2093 ;; *************** function ___fldiv *****************
  2094 ;; Defined at:
  2095 ;;		line 11 in file "C:\Program Files\Microchip\xc8\v2.50\pic\sources\c99\common\sprcdiv.c"
  2096 ;; Parameters:    Size  Location     Type
  2097 ;;  b               4   28[COMRAM] unsigned char 
  2098 ;;  a               4   32[COMRAM] unsigned char 
  2099 ;; Auto vars:     Size  Location     Type
  2100 ;;  grs             4   47[COMRAM] unsigned long 
  2101 ;;  rem             4   40[COMRAM] unsigned long 
  2102 ;;  new_exp         2   45[COMRAM] short 
  2103 ;;  aexp            1   52[COMRAM] unsigned char 
  2104 ;;  bexp            1   51[COMRAM] unsigned char 
  2105 ;;  sign            1   44[COMRAM] unsigned char 
  2106 ;; Return value:  Size  Location     Type
  2107 ;;                  4   28[COMRAM] unsigned char 
  2108 ;; Registers used:
  2109 ;;		wreg, status,2, status,0
  2110 ;; Tracked objects:
  2111 ;;		On entry : 0/0
  2112 ;;		On exit  : 0/0
  2113 ;;		Unchanged: 0/0
  2114 ;; Data sizes:     COMRAM   BANK0   BANK1   BANK2   BANK3   BANK4   BANK5
  2115 ;;      Params:         8       0       0       0       0       0       0
  2116 ;;      Locals:        13       0       0       0       0       0       0
  2117 ;;      Temps:          4       0       0       0       0       0       0
  2118 ;;      Totals:        25       0       0       0       0       0       0
  2119 ;;Total ram usage:       25 bytes
  2120 ;; Hardware stack levels used: 1
  2121 ;; Hardware stack levels required when called: 5
  2122 ;; This function calls:
  2123 ;;		Nothing
  2124 ;; This function is called by:
  2125 ;;		_set_servo_angle
  2126 ;;		_VR_value_to_servo_angle
  2127 ;; This function uses a non-reentrant model
  2128 ;;
  2129                           
  2130                           	psect	text5
  2131   000EDE                     __ptext5:
  2132                           	callstack 0
  2133   000EDE                     ___fldiv:
  2134                           	callstack 24
  2135   000EDE  5020               	movf	(___fldiv@b+3)^0,w,c
  2136   000EE0  0B80               	andlw	128
  2137   000EE2  6E2D               	movwf	___fldiv@sign^0,c
  2138   000EE4  5020               	movf	(___fldiv@b+3)^0,w,c
  2139   000EE6  2420               	addwf	(___fldiv@b+3)^0,w,c
  2140   000EE8  6E34               	movwf	___fldiv@bexp^0,c
  2141   000EEA  AE1F               	btfss	(___fldiv@b+2)^0,7,c
  2142   000EEC  EF7A  F007         	goto	u1711
  2143   000EF0  EF7C  F007         	goto	u1710
  2144   000EF4                     u1711:
  2145   000EF4  EF7D  F007         	goto	l1922
  2146   000EF8                     u1710:
  2147   000EF8  8034               	bsf	___fldiv@bexp^0,0,c
  2148   000EFA                     l1922:
  2149   000EFA  5034               	movf	___fldiv@bexp^0,w,c
  2150   000EFC  B4D8               	btfsc	status,2,c
  2151   000EFE  EF83  F007         	goto	u1721
  2152   000F02  EF85  F007         	goto	u1720
  2153   000F06                     u1721:
  2154   000F06  EF99  F007         	goto	l1932
  2155   000F0A                     u1720:
  2156   000F0A  2834               	incf	___fldiv@bexp^0,w,c
  2157   000F0C  A4D8               	btfss	status,2,c
  2158   000F0E  EF8B  F007         	goto	u1731
  2159   000F12  EF8D  F007         	goto	u1730
  2160   000F16                     u1731:
  2161   000F16  EF95  F007         	goto	l1928
  2162   000F1A                     u1730:
  2163   000F1A  0E00               	movlw	0
  2164   000F1C  6E1D               	movwf	___fldiv@b^0,c
  2165   000F1E  0E00               	movlw	0
  2166   000F20  6E1E               	movwf	(___fldiv@b+1)^0,c
  2167   000F22  0E00               	movlw	0
  2168   000F24  6E1F               	movwf	(___fldiv@b+2)^0,c
  2169   000F26  0E00               	movlw	0
  2170   000F28  6E20               	movwf	(___fldiv@b+3)^0,c
  2171   000F2A                     l1928:
  2172   000F2A  8E1F               	bsf	(___fldiv@b+2)^0,7,c
  2173   000F2C  6A20               	clrf	(___fldiv@b+3)^0,c
  2174   000F2E  EFA1  F007         	goto	l1934
  2175   000F32                     l1932:
  2176   000F32  0E00               	movlw	0
  2177   000F34  6E1D               	movwf	___fldiv@b^0,c
  2178   000F36  0E00               	movlw	0
  2179   000F38  6E1E               	movwf	(___fldiv@b+1)^0,c
  2180   000F3A  0E00               	movlw	0
  2181   000F3C  6E1F               	movwf	(___fldiv@b+2)^0,c
  2182   000F3E  0E00               	movlw	0
  2183   000F40  6E20               	movwf	(___fldiv@b+3)^0,c
  2184   000F42                     l1934:
  2185   000F42  5024               	movf	(___fldiv@a+3)^0,w,c
  2186   000F44  0B80               	andlw	128
  2187   000F46  1A2D               	xorwf	___fldiv@sign^0,f,c
  2188   000F48  5024               	movf	(___fldiv@a+3)^0,w,c
  2189   000F4A  2424               	addwf	(___fldiv@a+3)^0,w,c
  2190   000F4C  6E35               	movwf	___fldiv@aexp^0,c
  2191   000F4E  AE23               	btfss	(___fldiv@a+2)^0,7,c
  2192   000F50  EFAC  F007         	goto	u1741
  2193   000F54  EFAE  F007         	goto	u1740
  2194   000F58                     u1741:
  2195   000F58  EFAF  F007         	goto	l1942
  2196   000F5C                     u1740:
  2197   000F5C  8035               	bsf	___fldiv@aexp^0,0,c
  2198   000F5E                     l1942:
  2199   000F5E  5035               	movf	___fldiv@aexp^0,w,c
  2200   000F60  B4D8               	btfsc	status,2,c
  2201   000F62  EFB5  F007         	goto	u1751
  2202   000F66  EFB7  F007         	goto	u1750
  2203   000F6A                     u1751:
  2204   000F6A  EFCB  F007         	goto	l1952
  2205   000F6E                     u1750:
  2206   000F6E  2835               	incf	___fldiv@aexp^0,w,c
  2207   000F70  A4D8               	btfss	status,2,c
  2208   000F72  EFBD  F007         	goto	u1761
  2209   000F76  EFBF  F007         	goto	u1760
  2210   000F7A                     u1761:
  2211   000F7A  EFC7  F007         	goto	l1948
  2212   000F7E                     u1760:
  2213   000F7E  0E00               	movlw	0
  2214   000F80  6E21               	movwf	___fldiv@a^0,c
  2215   000F82  0E00               	movlw	0
  2216   000F84  6E22               	movwf	(___fldiv@a+1)^0,c
  2217   000F86  0E00               	movlw	0
  2218   000F88  6E23               	movwf	(___fldiv@a+2)^0,c
  2219   000F8A  0E00               	movlw	0
  2220   000F8C  6E24               	movwf	(___fldiv@a+3)^0,c
  2221   000F8E                     l1948:
  2222   000F8E  8E23               	bsf	(___fldiv@a+2)^0,7,c
  2223   000F90  6A24               	clrf	(___fldiv@a+3)^0,c
  2224   000F92  EFD3  F007         	goto	l1954
  2225   000F96                     l1952:
  2226   000F96  0E00               	movlw	0
  2227   000F98  6E21               	movwf	___fldiv@a^0,c
  2228   000F9A  0E00               	movlw	0
  2229   000F9C  6E22               	movwf	(___fldiv@a+1)^0,c
  2230   000F9E  0E00               	movlw	0
  2231   000FA0  6E23               	movwf	(___fldiv@a+2)^0,c
  2232   000FA2  0E00               	movlw	0
  2233   000FA4  6E24               	movwf	(___fldiv@a+3)^0,c
  2234   000FA6                     l1954:
  2235   000FA6  5021               	movf	___fldiv@a^0,w,c
  2236   000FA8  1022               	iorwf	(___fldiv@a+1)^0,w,c
  2237   000FAA  1023               	iorwf	(___fldiv@a+2)^0,w,c
  2238   000FAC  1024               	iorwf	(___fldiv@a+3)^0,w,c
  2239   000FAE  A4D8               	btfss	status,2,c
  2240   000FB0  EFDC  F007         	goto	u1771
  2241   000FB4  EFDE  F007         	goto	u1770
  2242   000FB8                     u1771:
  2243   000FB8  EFF6  F007         	goto	l1966
  2244   000FBC                     u1770:
  2245   000FBC  0E00               	movlw	0
  2246   000FBE  6E1D               	movwf	___fldiv@b^0,c
  2247   000FC0  0E00               	movlw	0
  2248   000FC2  6E1E               	movwf	(___fldiv@b+1)^0,c
  2249   000FC4  0E00               	movlw	0
  2250   000FC6  6E1F               	movwf	(___fldiv@b+2)^0,c
  2251   000FC8  0E00               	movlw	0
  2252   000FCA  6E20               	movwf	(___fldiv@b+3)^0,c
  2253   000FCC  0E80               	movlw	128
  2254   000FCE  121F               	iorwf	(___fldiv@b+2)^0,f,c
  2255   000FD0  0E7F               	movlw	127
  2256   000FD2  1220               	iorwf	(___fldiv@b+3)^0,f,c
  2257   000FD4                     l1960:
  2258   000FD4  502D               	movf	___fldiv@sign^0,w,c
  2259   000FD6  1220               	iorwf	(___fldiv@b+3)^0,f,c
  2260   000FD8  C01D  F01D         	movff	___fldiv@b,?___fldiv
  2261   000FDC  C01E  F01E         	movff	___fldiv@b+1,?___fldiv+1
  2262   000FE0  C01F  F01F         	movff	___fldiv@b+2,?___fldiv+2
  2263   000FE4  C020  F020         	movff	___fldiv@b+3,?___fldiv+3
  2264   000FE8  EF36  F009         	goto	l771
  2265   000FEC                     l1966:
  2266   000FEC  5034               	movf	___fldiv@bexp^0,w,c
  2267   000FEE  A4D8               	btfss	status,2,c
  2268   000FF0  EFFC  F007         	goto	u1781
  2269   000FF4  EFFE  F007         	goto	u1780
  2270   000FF8                     u1781:
  2271   000FF8  EF08  F008         	goto	l1974
  2272   000FFC                     u1780:
  2273   000FFC  0E00               	movlw	0
  2274   000FFE  6E1D               	movwf	?___fldiv^0,c
  2275   001000  0E00               	movlw	0
  2276   001002  6E1E               	movwf	(?___fldiv+1)^0,c
  2277   001004  0E00               	movlw	0
  2278   001006  6E1F               	movwf	(?___fldiv+2)^0,c
  2279   001008  0E00               	movlw	0
  2280   00100A  6E20               	movwf	(?___fldiv+3)^0,c
  2281   00100C  EF36  F009         	goto	l771
  2282   001010                     l1974:
  2283   001010  5035               	movf	___fldiv@aexp^0,w,c
  2284   001012  C034  F025         	movff	___fldiv@bexp,??___fldiv
  2285   001016  6A26               	clrf	(??___fldiv+1)^0,c
  2286   001018  5E25               	subwf	??___fldiv^0,f,c
  2287   00101A  0E00               	movlw	0
  2288   00101C  5A26               	subwfb	(??___fldiv+1)^0,f,c
  2289   00101E  0E7F               	movlw	127
  2290   001020  2425               	addwf	??___fldiv^0,w,c
  2291   001022  6E2E               	movwf	___fldiv@new_exp^0,c
  2292   001024  0E00               	movlw	0
  2293   001026  2026               	addwfc	(??___fldiv+1)^0,w,c
  2294   001028  6E2F               	movwf	(___fldiv@new_exp+1)^0,c
  2295   00102A  C01D  F029         	movff	___fldiv@b,___fldiv@rem
  2296   00102E  C01E  F02A         	movff	___fldiv@b+1,___fldiv@rem+1
  2297   001032  C01F  F02B         	movff	___fldiv@b+2,___fldiv@rem+2
  2298   001036  C020  F02C         	movff	___fldiv@b+3,___fldiv@rem+3
  2299   00103A  0E00               	movlw	0
  2300   00103C  6E1D               	movwf	___fldiv@b^0,c
  2301   00103E  0E00               	movlw	0
  2302   001040  6E1E               	movwf	(___fldiv@b+1)^0,c
  2303   001042  0E00               	movlw	0
  2304   001044  6E1F               	movwf	(___fldiv@b+2)^0,c
  2305   001046  0E00               	movlw	0
  2306   001048  6E20               	movwf	(___fldiv@b+3)^0,c
  2307   00104A  0E00               	movlw	0
  2308   00104C  6E30               	movwf	___fldiv@grs^0,c
  2309   00104E  0E00               	movlw	0
  2310   001050  6E31               	movwf	(___fldiv@grs+1)^0,c
  2311   001052  0E00               	movlw	0
  2312   001054  6E32               	movwf	(___fldiv@grs+2)^0,c
  2313   001056  0E00               	movlw	0
  2314   001058  6E33               	movwf	(___fldiv@grs+3)^0,c
  2315   00105A  6A35               	clrf	___fldiv@aexp^0,c
  2316   00105C  EF68  F008         	goto	l773
  2317   001060                     l1984:
  2318   001060  5035               	movf	___fldiv@aexp^0,w,c
  2319   001062  B4D8               	btfsc	status,2,c
  2320   001064  EF36  F008         	goto	u1791
  2321   001068  EF38  F008         	goto	u1790
  2322   00106C                     u1791:
  2323   00106C  EF4F  F008         	goto	l1992
  2324   001070                     u1790:
  2325   001070  90D8               	bcf	status,0,c
  2326   001072  3629               	rlcf	___fldiv@rem^0,f,c
  2327   001074  362A               	rlcf	(___fldiv@rem+1)^0,f,c
  2328   001076  362B               	rlcf	(___fldiv@rem+2)^0,f,c
  2329   001078  362C               	rlcf	(___fldiv@rem+3)^0,f,c
  2330   00107A  90D8               	bcf	status,0,c
  2331   00107C  361D               	rlcf	___fldiv@b^0,f,c
  2332   00107E  361E               	rlcf	(___fldiv@b+1)^0,f,c
  2333   001080  361F               	rlcf	(___fldiv@b+2)^0,f,c
  2334   001082  3620               	rlcf	(___fldiv@b+3)^0,f,c
  2335   001084  AE33               	btfss	(___fldiv@grs+3)^0,7,c
  2336   001086  EF47  F008         	goto	u1801
  2337   00108A  EF49  F008         	goto	u1800
  2338   00108E                     u1801:
  2339   00108E  EF4A  F008         	goto	l776
  2340   001092                     u1800:
  2341   001092  801D               	bsf	___fldiv@b^0,0,c
  2342   001094                     l776:
  2343   001094  90D8               	bcf	status,0,c
  2344   001096  3630               	rlcf	___fldiv@grs^0,f,c
  2345   001098  3631               	rlcf	(___fldiv@grs+1)^0,f,c
  2346   00109A  3632               	rlcf	(___fldiv@grs+2)^0,f,c
  2347   00109C  3633               	rlcf	(___fldiv@grs+3)^0,f,c
  2348   00109E                     l1992:
  2349   00109E  5021               	movf	___fldiv@a^0,w,c
  2350   0010A0  5C29               	subwf	___fldiv@rem^0,w,c
  2351   0010A2  5022               	movf	(___fldiv@a+1)^0,w,c
  2352   0010A4  582A               	subwfb	(___fldiv@rem+1)^0,w,c
  2353   0010A6  5023               	movf	(___fldiv@a+2)^0,w,c
  2354   0010A8  582B               	subwfb	(___fldiv@rem+2)^0,w,c
  2355   0010AA  5024               	movf	(___fldiv@a+3)^0,w,c
  2356   0010AC  582C               	subwfb	(___fldiv@rem+3)^0,w,c
  2357   0010AE  A0D8               	btfss	status,0,c
  2358   0010B0  EF5C  F008         	goto	u1811
  2359   0010B4  EF5E  F008         	goto	u1810
  2360   0010B8                     u1811:
  2361   0010B8  EF67  F008         	goto	l1998
  2362   0010BC                     u1810:
  2363   0010BC  8C33               	bsf	(___fldiv@grs+3)^0,6,c
  2364   0010BE  5021               	movf	___fldiv@a^0,w,c
  2365   0010C0  5E29               	subwf	___fldiv@rem^0,f,c
  2366   0010C2  5022               	movf	(___fldiv@a+1)^0,w,c
  2367   0010C4  5A2A               	subwfb	(___fldiv@rem+1)^0,f,c
  2368   0010C6  5023               	movf	(___fldiv@a+2)^0,w,c
  2369   0010C8  5A2B               	subwfb	(___fldiv@rem+2)^0,f,c
  2370   0010CA  5024               	movf	(___fldiv@a+3)^0,w,c
  2371   0010CC  5A2C               	subwfb	(___fldiv@rem+3)^0,f,c
  2372   0010CE                     l1998:
  2373   0010CE  2A35               	incf	___fldiv@aexp^0,f,c
  2374   0010D0                     l773:
  2375   0010D0  0E19               	movlw	25
  2376   0010D2  6435               	cpfsgt	___fldiv@aexp^0,c
  2377   0010D4  EF6E  F008         	goto	u1821
  2378   0010D8  EF70  F008         	goto	u1820
  2379   0010DC                     u1821:
  2380   0010DC  EF30  F008         	goto	l1984
  2381   0010E0                     u1820:
  2382   0010E0  5029               	movf	___fldiv@rem^0,w,c
  2383   0010E2  102A               	iorwf	(___fldiv@rem+1)^0,w,c
  2384   0010E4  102B               	iorwf	(___fldiv@rem+2)^0,w,c
  2385   0010E6  102C               	iorwf	(___fldiv@rem+3)^0,w,c
  2386   0010E8  B4D8               	btfsc	status,2,c
  2387   0010EA  EF79  F008         	goto	u1831
  2388   0010EE  EF7B  F008         	goto	u1830
  2389   0010F2                     u1831:
  2390   0010F2  EF93  F008         	goto	l2010
  2391   0010F6                     u1830:
  2392   0010F6  8030               	bsf	___fldiv@grs^0,0,c
  2393   0010F8  EF93  F008         	goto	l2010
  2394   0010FC                     l2004:
  2395   0010FC  90D8               	bcf	status,0,c
  2396   0010FE  361D               	rlcf	___fldiv@b^0,f,c
  2397   001100  361E               	rlcf	(___fldiv@b+1)^0,f,c
  2398   001102  361F               	rlcf	(___fldiv@b+2)^0,f,c
  2399   001104  3620               	rlcf	(___fldiv@b+3)^0,f,c
  2400   001106  AE33               	btfss	(___fldiv@grs+3)^0,7,c
  2401   001108  EF88  F008         	goto	u1841
  2402   00110C  EF8A  F008         	goto	u1840
  2403   001110                     u1841:
  2404   001110  EF8B  F008         	goto	l782
  2405   001114                     u1840:
  2406   001114  801D               	bsf	___fldiv@b^0,0,c
  2407   001116                     l782:
  2408   001116  90D8               	bcf	status,0,c
  2409   001118  3630               	rlcf	___fldiv@grs^0,f,c
  2410   00111A  3631               	rlcf	(___fldiv@grs+1)^0,f,c
  2411   00111C  3632               	rlcf	(___fldiv@grs+2)^0,f,c
  2412   00111E  3633               	rlcf	(___fldiv@grs+3)^0,f,c
  2413   001120  062E               	decf	___fldiv@new_exp^0,f,c
  2414   001122  A0D8               	btfss	status,0,c
  2415   001124  062F               	decf	(___fldiv@new_exp+1)^0,f,c
  2416   001126                     l2010:
  2417   001126  AE1F               	btfss	(___fldiv@b+2)^0,7,c
  2418   001128  EF98  F008         	goto	u1851
  2419   00112C  EF9A  F008         	goto	u1850
  2420   001130                     u1851:
  2421   001130  EF7E  F008         	goto	l2004
  2422   001134                     u1850:
  2423   001134  6A35               	clrf	___fldiv@aexp^0,c
  2424   001136  AE33               	btfss	(___fldiv@grs+3)^0,7,c
  2425   001138  EFA0  F008         	goto	u1861
  2426   00113C  EFA2  F008         	goto	u1860
  2427   001140                     u1861:
  2428   001140  EFC6  F008         	goto	l784
  2429   001144                     u1860:
  2430   001144  0EFF               	movlw	255
  2431   001146  1430               	andwf	___fldiv@grs^0,w,c
  2432   001148  6E25               	movwf	??___fldiv^0,c
  2433   00114A  0EFF               	movlw	255
  2434   00114C  1431               	andwf	(___fldiv@grs+1)^0,w,c
  2435   00114E  6E26               	movwf	(??___fldiv+1)^0,c
  2436   001150  0EFF               	movlw	255
  2437   001152  1432               	andwf	(___fldiv@grs+2)^0,w,c
  2438   001154  6E27               	movwf	(??___fldiv+2)^0,c
  2439   001156  0E7F               	movlw	127
  2440   001158  1433               	andwf	(___fldiv@grs+3)^0,w,c
  2441   00115A  6E28               	movwf	(??___fldiv+3)^0,c
  2442   00115C  5025               	movf	??___fldiv^0,w,c
  2443   00115E  1026               	iorwf	(??___fldiv+1)^0,w,c
  2444   001160  1027               	iorwf	(??___fldiv+2)^0,w,c
  2445   001162  1028               	iorwf	(??___fldiv+3)^0,w,c
  2446   001164  B4D8               	btfsc	status,2,c
  2447   001166  EFB7  F008         	goto	u1871
  2448   00116A  EFB9  F008         	goto	u1870
  2449   00116E                     u1871:
  2450   00116E  EFBD  F008         	goto	l785
  2451   001172                     u1870:
  2452   001172                     l2014:
  2453   001172  0E01               	movlw	1
  2454   001174  6E35               	movwf	___fldiv@aexp^0,c
  2455   001176  EFC6  F008         	goto	l784
  2456   00117A                     l785:
  2457   00117A  A01D               	btfss	___fldiv@b^0,0,c
  2458   00117C  EFC2  F008         	goto	u1881
  2459   001180  EFC4  F008         	goto	u1880
  2460   001184                     u1881:
  2461   001184  EFC6  F008         	goto	l784
  2462   001188                     u1880:
  2463   001188  EFB9  F008         	goto	l2014
  2464   00118C                     l784:
  2465   00118C  5035               	movf	___fldiv@aexp^0,w,c
  2466   00118E  B4D8               	btfsc	status,2,c
  2467   001190  EFCC  F008         	goto	u1891
  2468   001194  EFCE  F008         	goto	u1890
  2469   001198                     u1891:
  2470   001198  EFF2  F008         	goto	l2026
  2471   00119C                     u1890:
  2472   00119C  0E01               	movlw	1
  2473   00119E  261D               	addwf	___fldiv@b^0,f,c
  2474   0011A0  0E00               	movlw	0
  2475   0011A2  221E               	addwfc	(___fldiv@b+1)^0,f,c
  2476   0011A4  221F               	addwfc	(___fldiv@b+2)^0,f,c
  2477   0011A6  2220               	addwfc	(___fldiv@b+3)^0,f,c
  2478   0011A8  A020               	btfss	(___fldiv@b+3)^0,0,c
  2479   0011AA  EFD9  F008         	goto	u1901
  2480   0011AE  EFDB  F008         	goto	u1900
  2481   0011B2                     u1901:
  2482   0011B2  EFF2  F008         	goto	l2026
  2483   0011B6                     u1900:
  2484   0011B6  C01D  F025         	movff	___fldiv@b,??___fldiv
  2485   0011BA  C01E  F026         	movff	___fldiv@b+1,??___fldiv+1
  2486   0011BE  C01F  F027         	movff	___fldiv@b+2,??___fldiv+2
  2487   0011C2  C020  F028         	movff	___fldiv@b+3,??___fldiv+3
  2488   0011C6  3428               	rlcf	(??___fldiv+3)^0,w,c
  2489   0011C8  3228               	rrcf	(??___fldiv+3)^0,f,c
  2490   0011CA  3227               	rrcf	(??___fldiv+2)^0,f,c
  2491   0011CC  3226               	rrcf	(??___fldiv+1)^0,f,c
  2492   0011CE  3225               	rrcf	??___fldiv^0,f,c
  2493   0011D0  C025  F01D         	movff	??___fldiv,___fldiv@b
  2494   0011D4  C026  F01E         	movff	??___fldiv+1,___fldiv@b+1
  2495   0011D8  C027  F01F         	movff	??___fldiv+2,___fldiv@b+2
  2496   0011DC  C028  F020         	movff	??___fldiv+3,___fldiv@b+3
  2497   0011E0  4A2E               	infsnz	___fldiv@new_exp^0,f,c
  2498   0011E2  2A2F               	incf	(___fldiv@new_exp+1)^0,f,c
  2499   0011E4                     l2026:
  2500   0011E4  BE2F               	btfsc	(___fldiv@new_exp+1)^0,7,c
  2501   0011E6  EFFD  F008         	goto	u1911
  2502   0011EA  502F               	movf	(___fldiv@new_exp+1)^0,w,c
  2503   0011EC  E108               	bnz	u1910
  2504   0011EE  282E               	incf	___fldiv@new_exp^0,w,c
  2505   0011F0  A0D8               	btfss	status,0,c
  2506   0011F2  EFFD  F008         	goto	u1911
  2507   0011F6  EFFF  F008         	goto	u1910
  2508   0011FA                     u1911:
  2509   0011FA  EF0A  F009         	goto	l2030
  2510   0011FE                     u1910:
  2511   0011FE  0E00               	movlw	0
  2512   001200  6E2F               	movwf	(___fldiv@new_exp+1)^0,c
  2513   001202  682E               	setf	___fldiv@new_exp^0,c
  2514   001204  0E00               	movlw	0
  2515   001206  6E1D               	movwf	___fldiv@b^0,c
  2516   001208  0E00               	movlw	0
  2517   00120A  6E1E               	movwf	(___fldiv@b+1)^0,c
  2518   00120C  0E00               	movlw	0
  2519   00120E  6E1F               	movwf	(___fldiv@b+2)^0,c
  2520   001210  0E00               	movlw	0
  2521   001212  6E20               	movwf	(___fldiv@b+3)^0,c
  2522   001214                     l2030:
  2523   001214  BE2F               	btfsc	(___fldiv@new_exp+1)^0,7,c
  2524   001216  EF17  F009         	goto	u1920
  2525   00121A  502F               	movf	(___fldiv@new_exp+1)^0,w,c
  2526   00121C  E106               	bnz	u1921
  2527   00121E  042E               	decf	___fldiv@new_exp^0,w,c
  2528   001220  B0D8               	btfsc	status,0,c
  2529   001222  EF15  F009         	goto	u1921
  2530   001226  EF17  F009         	goto	u1920
  2531   00122A                     u1921:
  2532   00122A  EF24  F009         	goto	l2036
  2533   00122E                     u1920:
  2534   00122E  0E00               	movlw	0
  2535   001230  6E2F               	movwf	(___fldiv@new_exp+1)^0,c
  2536   001232  0E00               	movlw	0
  2537   001234  6E2E               	movwf	___fldiv@new_exp^0,c
  2538   001236  0E00               	movlw	0
  2539   001238  6E1D               	movwf	___fldiv@b^0,c
  2540   00123A  0E00               	movlw	0
  2541   00123C  6E1E               	movwf	(___fldiv@b+1)^0,c
  2542   00123E  0E00               	movlw	0
  2543   001240  6E1F               	movwf	(___fldiv@b+2)^0,c
  2544   001242  0E00               	movlw	0
  2545   001244  6E20               	movwf	(___fldiv@b+3)^0,c
  2546   001246  6A2D               	clrf	___fldiv@sign^0,c
  2547   001248                     l2036:
  2548   001248  C02E  F034         	movff	___fldiv@new_exp,___fldiv@bexp
  2549   00124C  A034               	btfss	___fldiv@bexp^0,0,c
  2550   00124E  EF2B  F009         	goto	u1931
  2551   001252  EF2D  F009         	goto	u1930
  2552   001256                     u1931:
  2553   001256  EF30  F009         	goto	l2042
  2554   00125A                     u1930:
  2555   00125A  8E1F               	bsf	(___fldiv@b+2)^0,7,c
  2556   00125C  EF31  F009         	goto	l2044
  2557   001260                     l2042:
  2558   001260  9E1F               	bcf	(___fldiv@b+2)^0,7,c
  2559   001262                     l2044:
  2560   001262  90D8               	bcf	status,0,c
  2561   001264  3034               	rrcf	___fldiv@bexp^0,w,c
  2562   001266  6E20               	movwf	(___fldiv@b+3)^0,c
  2563   001268  EFEA  F007         	goto	l1960
  2564   00126C                     l771:
  2565   00126C  0012               	return		;funcret
  2566   00126E                     __end_of___fldiv:
  2567                           	callstack 0
  2568                           
  2569 ;; *************** function ___fladd *****************
  2570 ;; Defined at:
  2571 ;;		line 10 in file "C:\Program Files\Microchip\xc8\v2.50\pic\sources\c99\common\sprcadd.c"
  2572 ;; Parameters:    Size  Location     Type
  2573 ;;  b               4   78[COMRAM] unsigned char 
  2574 ;;  a               4   82[COMRAM] unsigned char 
  2575 ;; Auto vars:     Size  Location     Type
  2576 ;;  grs             1   93[COMRAM] unsigned char 
  2577 ;;  bexp            1   92[COMRAM] unsigned char 
  2578 ;;  aexp            1   91[COMRAM] unsigned char 
  2579 ;;  signs           1   90[COMRAM] unsigned char 
  2580 ;; Return value:  Size  Location     Type
  2581 ;;                  4   78[COMRAM] unsigned char 
  2582 ;; Registers used:
  2583 ;;		wreg, status,2, status,0
  2584 ;; Tracked objects:
  2585 ;;		On entry : 0/0
  2586 ;;		On exit  : 0/0
  2587 ;;		Unchanged: 0/0
  2588 ;; Data sizes:     COMRAM   BANK0   BANK1   BANK2   BANK3   BANK4   BANK5
  2589 ;;      Params:         8       0       0       0       0       0       0
  2590 ;;      Locals:         4       0       0       0       0       0       0
  2591 ;;      Temps:          4       0       0       0       0       0       0
  2592 ;;      Totals:        16       0       0       0       0       0       0
  2593 ;;Total ram usage:       16 bytes
  2594 ;; Hardware stack levels used: 1
  2595 ;; Hardware stack levels required when called: 5
  2596 ;; This function calls:
  2597 ;;		Nothing
  2598 ;; This function is called by:
  2599 ;;		_set_servo_angle
  2600 ;;		_VR_value_to_servo_angle
  2601 ;; This function uses a non-reentrant model
  2602 ;;
  2603                           
  2604                           	psect	text6
  2605   000602                     __ptext6:
  2606                           	callstack 0
  2607   000602                     ___fladd:
  2608                           	callstack 24
  2609   000602  5052               	movf	(___fladd@b+3)^0,w,c
  2610   000604  0B80               	andlw	128
  2611   000606  6E5B               	movwf	___fladd@signs^0,c
  2612   000608  5052               	movf	(___fladd@b+3)^0,w,c
  2613   00060A  2452               	addwf	(___fladd@b+3)^0,w,c
  2614   00060C  6E5D               	movwf	___fladd@bexp^0,c
  2615   00060E  AE51               	btfss	(___fladd@b+2)^0,7,c
  2616   000610  EF0C  F003         	goto	u1321
  2617   000614  EF0E  F003         	goto	u1320
  2618   000618                     u1321:
  2619   000618  EF0F  F003         	goto	l1728
  2620   00061C                     u1320:
  2621   00061C  805D               	bsf	___fladd@bexp^0,0,c
  2622   00061E                     l1728:
  2623   00061E  505D               	movf	___fladd@bexp^0,w,c
  2624   000620  B4D8               	btfsc	status,2,c
  2625   000622  EF15  F003         	goto	u1331
  2626   000626  EF17  F003         	goto	u1330
  2627   00062A                     u1331:
  2628   00062A  EF2B  F003         	goto	l1738
  2629   00062E                     u1330:
  2630   00062E  285D               	incf	___fladd@bexp^0,w,c
  2631   000630  A4D8               	btfss	status,2,c
  2632   000632  EF1D  F003         	goto	u1341
  2633   000636  EF1F  F003         	goto	u1340
  2634   00063A                     u1341:
  2635   00063A  EF27  F003         	goto	l1734
  2636   00063E                     u1340:
  2637   00063E  0E00               	movlw	0
  2638   000640  6E4F               	movwf	___fladd@b^0,c
  2639   000642  0E00               	movlw	0
  2640   000644  6E50               	movwf	(___fladd@b+1)^0,c
  2641   000646  0E00               	movlw	0
  2642   000648  6E51               	movwf	(___fladd@b+2)^0,c
  2643   00064A  0E00               	movlw	0
  2644   00064C  6E52               	movwf	(___fladd@b+3)^0,c
  2645   00064E                     l1734:
  2646   00064E  8E51               	bsf	(___fladd@b+2)^0,7,c
  2647   000650  6A52               	clrf	(___fladd@b+3)^0,c
  2648   000652  EF33  F003         	goto	l1740
  2649   000656                     l1738:
  2650   000656  0E00               	movlw	0
  2651   000658  6E4F               	movwf	___fladd@b^0,c
  2652   00065A  0E00               	movlw	0
  2653   00065C  6E50               	movwf	(___fladd@b+1)^0,c
  2654   00065E  0E00               	movlw	0
  2655   000660  6E51               	movwf	(___fladd@b+2)^0,c
  2656   000662  0E00               	movlw	0
  2657   000664  6E52               	movwf	(___fladd@b+3)^0,c
  2658   000666                     l1740:
  2659   000666  5056               	movf	(___fladd@a+3)^0,w,c
  2660   000668  0B80               	andlw	128
  2661   00066A  6E5C               	movwf	___fladd@aexp^0,c
  2662   00066C  505B               	movf	___fladd@signs^0,w,c
  2663   00066E  185C               	xorwf	___fladd@aexp^0,w,c
  2664   000670  B4D8               	btfsc	status,2,c
  2665   000672  EF3D  F003         	goto	u1351
  2666   000676  EF3F  F003         	goto	u1350
  2667   00067A                     u1351:
  2668   00067A  EF40  F003         	goto	l1746
  2669   00067E                     u1350:
  2670   00067E  8C5B               	bsf	___fladd@signs^0,6,c
  2671   000680                     l1746:
  2672   000680  5056               	movf	(___fladd@a+3)^0,w,c
  2673   000682  2456               	addwf	(___fladd@a+3)^0,w,c
  2674   000684  6E5C               	movwf	___fladd@aexp^0,c
  2675   000686  AE55               	btfss	(___fladd@a+2)^0,7,c
  2676   000688  EF48  F003         	goto	u1361
  2677   00068C  EF4A  F003         	goto	u1360
  2678   000690                     u1361:
  2679   000690  EF4B  F003         	goto	l1752
  2680   000694                     u1360:
  2681   000694  805C               	bsf	___fladd@aexp^0,0,c
  2682   000696                     l1752:
  2683   000696  505C               	movf	___fladd@aexp^0,w,c
  2684   000698  B4D8               	btfsc	status,2,c
  2685   00069A  EF51  F003         	goto	u1371
  2686   00069E  EF53  F003         	goto	u1370
  2687   0006A2                     u1371:
  2688   0006A2  EF67  F003         	goto	l1762
  2689   0006A6                     u1370:
  2690   0006A6  285C               	incf	___fladd@aexp^0,w,c
  2691   0006A8  A4D8               	btfss	status,2,c
  2692   0006AA  EF59  F003         	goto	u1381
  2693   0006AE  EF5B  F003         	goto	u1380
  2694   0006B2                     u1381:
  2695   0006B2  EF63  F003         	goto	l1758
  2696   0006B6                     u1380:
  2697   0006B6  0E00               	movlw	0
  2698   0006B8  6E53               	movwf	___fladd@a^0,c
  2699   0006BA  0E00               	movlw	0
  2700   0006BC  6E54               	movwf	(___fladd@a+1)^0,c
  2701   0006BE  0E00               	movlw	0
  2702   0006C0  6E55               	movwf	(___fladd@a+2)^0,c
  2703   0006C2  0E00               	movlw	0
  2704   0006C4  6E56               	movwf	(___fladd@a+3)^0,c
  2705   0006C6                     l1758:
  2706   0006C6  8E55               	bsf	(___fladd@a+2)^0,7,c
  2707   0006C8  6A56               	clrf	(___fladd@a+3)^0,c
  2708   0006CA  EF6F  F003         	goto	l1764
  2709   0006CE                     l1762:
  2710   0006CE  0E00               	movlw	0
  2711   0006D0  6E53               	movwf	___fladd@a^0,c
  2712   0006D2  0E00               	movlw	0
  2713   0006D4  6E54               	movwf	(___fladd@a+1)^0,c
  2714   0006D6  0E00               	movlw	0
  2715   0006D8  6E55               	movwf	(___fladd@a+2)^0,c
  2716   0006DA  0E00               	movlw	0
  2717   0006DC  6E56               	movwf	(___fladd@a+3)^0,c
  2718   0006DE                     l1764:
  2719   0006DE  505D               	movf	___fladd@bexp^0,w,c
  2720   0006E0  5C5C               	subwf	___fladd@aexp^0,w,c
  2721   0006E2  B0D8               	btfsc	status,0,c
  2722   0006E4  EF76  F003         	goto	u1391
  2723   0006E8  EF78  F003         	goto	u1390
  2724   0006EC                     u1391:
  2725   0006EC  EF9F  F003         	goto	l1800
  2726   0006F0                     u1390:
  2727   0006F0  AC5B               	btfss	___fladd@signs^0,6,c
  2728   0006F2  EF7D  F003         	goto	u1401
  2729   0006F6  EF7F  F003         	goto	u1400
  2730   0006FA                     u1401:
  2731   0006FA  EF81  F003         	goto	l1770
  2732   0006FE                     u1400:
  2733   0006FE  0E80               	movlw	128
  2734   000700  1A5B               	xorwf	___fladd@signs^0,f,c
  2735   000702                     l1770:
  2736   000702  C05D  F05E         	movff	___fladd@bexp,___fladd@grs
  2737   000706  C05C  F05D         	movff	___fladd@aexp,___fladd@bexp
  2738   00070A  C05E  F05C         	movff	___fladd@grs,___fladd@aexp
  2739   00070E  C04F  F05E         	movff	___fladd@b,___fladd@grs
  2740   000712  C053  F04F         	movff	___fladd@a,___fladd@b
  2741   000716  C05E  F053         	movff	___fladd@grs,___fladd@a
  2742   00071A  C050  F05E         	movff	___fladd@b+1,___fladd@grs
  2743   00071E  C054  F050         	movff	___fladd@a+1,___fladd@b+1
  2744   000722  C05E  F054         	movff	___fladd@grs,___fladd@a+1
  2745   000726  C051  F05E         	movff	___fladd@b+2,___fladd@grs
  2746   00072A  C055  F051         	movff	___fladd@a+2,___fladd@b+2
  2747   00072E  C05E  F055         	movff	___fladd@grs,___fladd@a+2
  2748   000732  C052  F05E         	movff	___fladd@b+3,___fladd@grs
  2749   000736  C056  F052         	movff	___fladd@a+3,___fladd@b+3
  2750   00073A  C05E  F056         	movff	___fladd@grs,___fladd@a+3
  2751   00073E                     l1800:
  2752   00073E  6A5E               	clrf	___fladd@grs^0,c
  2753   000740  505D               	movf	___fladd@bexp^0,w,c
  2754   000742  C05C  F057         	movff	___fladd@aexp,??___fladd
  2755   000746  6A58               	clrf	(??___fladd+1)^0,c
  2756   000748  5E57               	subwf	??___fladd^0,f,c
  2757   00074A  0E00               	movlw	0
  2758   00074C  5A58               	subwfb	(??___fladd+1)^0,f,c
  2759   00074E  BE58               	btfsc	(??___fladd+1)^0,7,c
  2760   000750  EFB3  F003         	goto	u1411
  2761   000754  5058               	movf	(??___fladd+1)^0,w,c
  2762   000756  E109               	bnz	u1410
  2763   000758  0E1A               	movlw	26
  2764   00075A  5C57               	subwf	??___fladd^0,w,c
  2765   00075C  A0D8               	btfss	status,0,c
  2766   00075E  EFB3  F003         	goto	u1411
  2767   000762  EFB5  F003         	goto	u1410
  2768   000766                     u1411:
  2769   000766  EFEC  F003         	goto	l718
  2770   00076A                     u1410:
  2771   00076A  504F               	movf	___fladd@b^0,w,c
  2772   00076C  1050               	iorwf	(___fladd@b+1)^0,w,c
  2773   00076E  1051               	iorwf	(___fladd@b+2)^0,w,c
  2774   000770  1052               	iorwf	(___fladd@b+3)^0,w,c
  2775   000772  A4D8               	btfss	status,2,c
  2776   000774  EFBE  F003         	goto	u1421
  2777   000778  EFC1  F003         	goto	u1420
  2778   00077C                     u1421:
  2779   00077C  0E01               	movlw	1
  2780   00077E  EFC2  F003         	goto	u1430
  2781   000782                     u1420:
  2782   000782  0E00               	movlw	0
  2783   000784                     u1430:
  2784   000784  6E5E               	movwf	___fladd@grs^0,c
  2785   000786  0E00               	movlw	0
  2786   000788  6E4F               	movwf	___fladd@b^0,c
  2787   00078A  0E00               	movlw	0
  2788   00078C  6E50               	movwf	(___fladd@b+1)^0,c
  2789   00078E  0E00               	movlw	0
  2790   000790  6E51               	movwf	(___fladd@b+2)^0,c
  2791   000792  0E00               	movlw	0
  2792   000794  6E52               	movwf	(___fladd@b+3)^0,c
  2793   000796  C05C  F05D         	movff	___fladd@aexp,___fladd@bexp
  2794   00079A  EFF5  F003         	goto	l717
  2795   00079E                     l719:
  2796   00079E  A05E               	btfss	___fladd@grs^0,0,c
  2797   0007A0  EFD4  F003         	goto	u1441
  2798   0007A4  EFD6  F003         	goto	u1440
  2799   0007A8                     u1441:
  2800   0007A8  EFDC  F003         	goto	l1810
  2801   0007AC                     u1440:
  2802   0007AC  90D8               	bcf	status,0,c
  2803   0007AE  305E               	rrcf	___fladd@grs^0,w,c
  2804   0007B0  0901               	iorlw	1
  2805   0007B2  6E5E               	movwf	___fladd@grs^0,c
  2806   0007B4  EFDE  F003         	goto	l1812
  2807   0007B8                     l1810:
  2808   0007B8  90D8               	bcf	status,0,c
  2809   0007BA  325E               	rrcf	___fladd@grs^0,f,c
  2810   0007BC                     l1812:
  2811   0007BC  A04F               	btfss	___fladd@b^0,0,c
  2812   0007BE  EFE3  F003         	goto	u1451
  2813   0007C2  EFE5  F003         	goto	u1450
  2814   0007C6                     u1451:
  2815   0007C6  EFE6  F003         	goto	l1816
  2816   0007CA                     u1450:
  2817   0007CA  8E5E               	bsf	___fladd@grs^0,7,c
  2818   0007CC                     l1816:
  2819   0007CC  3452               	rlcf	(___fladd@b+3)^0,w,c
  2820   0007CE  3252               	rrcf	(___fladd@b+3)^0,f,c
  2821   0007D0  3251               	rrcf	(___fladd@b+2)^0,f,c
  2822   0007D2  3250               	rrcf	(___fladd@b+1)^0,f,c
  2823   0007D4  324F               	rrcf	___fladd@b^0,f,c
  2824   0007D6  2A5D               	incf	___fladd@bexp^0,f,c
  2825   0007D8                     l718:
  2826   0007D8  505C               	movf	___fladd@aexp^0,w,c
  2827   0007DA  5C5D               	subwf	___fladd@bexp^0,w,c
  2828   0007DC  A0D8               	btfss	status,0,c
  2829   0007DE  EFF3  F003         	goto	u1461
  2830   0007E2  EFF5  F003         	goto	u1460
  2831   0007E6                     u1461:
  2832   0007E6  EFCF  F003         	goto	l719
  2833   0007EA                     u1460:
  2834   0007EA                     l717:
  2835   0007EA  BC5B               	btfsc	___fladd@signs^0,6,c
  2836   0007EC  EFFA  F003         	goto	u1471
  2837   0007F0  EFFC  F003         	goto	u1470
  2838   0007F4                     u1471:
  2839   0007F4  EF3C  F004         	goto	l1844
  2840   0007F8                     u1470:
  2841   0007F8  505D               	movf	___fladd@bexp^0,w,c
  2842   0007FA  A4D8               	btfss	status,2,c
  2843   0007FC  EF02  F004         	goto	u1481
  2844   000800  EF04  F004         	goto	u1480
  2845   000804                     u1481:
  2846   000804  EF0E  F004         	goto	l1826
  2847   000808                     u1480:
  2848   000808  0E00               	movlw	0
  2849   00080A  6E4F               	movwf	?___fladd^0,c
  2850   00080C  0E00               	movlw	0
  2851   00080E  6E50               	movwf	(?___fladd+1)^0,c
  2852   000810  0E00               	movlw	0
  2853   000812  6E51               	movwf	(?___fladd+2)^0,c
  2854   000814  0E00               	movlw	0
  2855   000816  6E52               	movwf	(?___fladd+3)^0,c
  2856   000818  EF5B  F005         	goto	l726
  2857   00081C                     l1826:
  2858   00081C  5053               	movf	___fladd@a^0,w,c
  2859   00081E  264F               	addwf	___fladd@b^0,f,c
  2860   000820  5054               	movf	(___fladd@a+1)^0,w,c
  2861   000822  2250               	addwfc	(___fladd@b+1)^0,f,c
  2862   000824  5055               	movf	(___fladd@a+2)^0,w,c
  2863   000826  2251               	addwfc	(___fladd@b+2)^0,f,c
  2864   000828  5056               	movf	(___fladd@a+3)^0,w,c
  2865   00082A  2252               	addwfc	(___fladd@b+3)^0,f,c
  2866   00082C  A052               	btfss	(___fladd@b+3)^0,0,c
  2867   00082E  EF1B  F004         	goto	u1491
  2868   000832  EF1D  F004         	goto	u1490
  2869   000836                     u1491:
  2870   000836  EFC9  F004         	goto	l731
  2871   00083A                     u1490:
  2872   00083A  A05E               	btfss	___fladd@grs^0,0,c
  2873   00083C  EF22  F004         	goto	u1501
  2874   000840  EF24  F004         	goto	u1500
  2875   000844                     u1501:
  2876   000844  EF2A  F004         	goto	l1834
  2877   000848                     u1500:
  2878   000848  90D8               	bcf	status,0,c
  2879   00084A  305E               	rrcf	___fladd@grs^0,w,c
  2880   00084C  0901               	iorlw	1
  2881   00084E  6E5E               	movwf	___fladd@grs^0,c
  2882   000850  EF2C  F004         	goto	l1836
  2883   000854                     l1834:
  2884   000854  90D8               	bcf	status,0,c
  2885   000856  325E               	rrcf	___fladd@grs^0,f,c
  2886   000858                     l1836:
  2887   000858  A04F               	btfss	___fladd@b^0,0,c
  2888   00085A  EF31  F004         	goto	u1511
  2889   00085E  EF33  F004         	goto	u1510
  2890   000862                     u1511:
  2891   000862  EF34  F004         	goto	l1840
  2892   000866                     u1510:
  2893   000866  8E5E               	bsf	___fladd@grs^0,7,c
  2894   000868                     l1840:
  2895   000868  3452               	rlcf	(___fladd@b+3)^0,w,c
  2896   00086A  3252               	rrcf	(___fladd@b+3)^0,f,c
  2897   00086C  3251               	rrcf	(___fladd@b+2)^0,f,c
  2898   00086E  3250               	rrcf	(___fladd@b+1)^0,f,c
  2899   000870  324F               	rrcf	___fladd@b^0,f,c
  2900   000872  2A5D               	incf	___fladd@bexp^0,f,c
  2901   000874  EFC9  F004         	goto	l731
  2902   000878                     l1844:
  2903   000878  5053               	movf	___fladd@a^0,w,c
  2904   00087A  5C4F               	subwf	___fladd@b^0,w,c
  2905   00087C  5054               	movf	(___fladd@a+1)^0,w,c
  2906   00087E  5850               	subwfb	(___fladd@b+1)^0,w,c
  2907   000880  5055               	movf	(___fladd@a+2)^0,w,c
  2908   000882  5851               	subwfb	(___fladd@b+2)^0,w,c
  2909   000884  5052               	movf	(___fladd@b+3)^0,w,c
  2910   000886  0A80               	xorlw	128
  2911   000888  6E57               	movwf	??___fladd^0,c
  2912   00088A  5056               	movf	(___fladd@a+3)^0,w,c
  2913   00088C  0A80               	xorlw	128
  2914   00088E  5857               	subwfb	??___fladd^0,w,c
  2915   000890  B0D8               	btfsc	status,0,c
  2916   000892  EF4D  F004         	goto	u1521
  2917   000896  EF4F  F004         	goto	u1520
  2918   00089A                     u1521:
  2919   00089A  EF7A  F004         	goto	l1854
  2920   00089E                     u1520:
  2921   00089E  504F               	movf	___fladd@b^0,w,c
  2922   0008A0  5C53               	subwf	___fladd@a^0,w,c
  2923   0008A2  6E57               	movwf	??___fladd^0,c
  2924   0008A4  5050               	movf	(___fladd@b+1)^0,w,c
  2925   0008A6  5854               	subwfb	(___fladd@a+1)^0,w,c
  2926   0008A8  6E58               	movwf	(??___fladd+1)^0,c
  2927   0008AA  5051               	movf	(___fladd@b+2)^0,w,c
  2928   0008AC  5855               	subwfb	(___fladd@a+2)^0,w,c
  2929   0008AE  6E59               	movwf	(??___fladd+2)^0,c
  2930   0008B0  5052               	movf	(___fladd@b+3)^0,w,c
  2931   0008B2  5856               	subwfb	(___fladd@a+3)^0,w,c
  2932   0008B4  6E5A               	movwf	(??___fladd+3)^0,c
  2933   0008B6  0EFF               	movlw	255
  2934   0008B8  2457               	addwf	??___fladd^0,w,c
  2935   0008BA  6E4F               	movwf	___fladd@b^0,c
  2936   0008BC  0EFF               	movlw	255
  2937   0008BE  2058               	addwfc	(??___fladd+1)^0,w,c
  2938   0008C0  6E50               	movwf	(___fladd@b+1)^0,c
  2939   0008C2  0EFF               	movlw	255
  2940   0008C4  2059               	addwfc	(??___fladd+2)^0,w,c
  2941   0008C6  6E51               	movwf	(___fladd@b+2)^0,c
  2942   0008C8  0EFF               	movlw	255
  2943   0008CA  205A               	addwfc	(??___fladd+3)^0,w,c
  2944   0008CC  6E52               	movwf	(___fladd@b+3)^0,c
  2945   0008CE  0E80               	movlw	128
  2946   0008D0  1A5B               	xorwf	___fladd@signs^0,f,c
  2947   0008D2  6C5E               	negf	___fladd@grs^0,c
  2948   0008D4  505E               	movf	___fladd@grs^0,w,c
  2949   0008D6  A4D8               	btfss	status,2,c
  2950   0008D8  EF70  F004         	goto	u1531
  2951   0008DC  EF72  F004         	goto	u1530
  2952   0008E0                     u1531:
  2953   0008E0  EF82  F004         	goto	l734
  2954   0008E4                     u1530:
  2955   0008E4  0E01               	movlw	1
  2956   0008E6  264F               	addwf	___fladd@b^0,f,c
  2957   0008E8  0E00               	movlw	0
  2958   0008EA  2250               	addwfc	(___fladd@b+1)^0,f,c
  2959   0008EC  2251               	addwfc	(___fladd@b+2)^0,f,c
  2960   0008EE  2252               	addwfc	(___fladd@b+3)^0,f,c
  2961   0008F0  EF82  F004         	goto	l734
  2962   0008F4                     l1854:
  2963   0008F4  5053               	movf	___fladd@a^0,w,c
  2964   0008F6  5E4F               	subwf	___fladd@b^0,f,c
  2965   0008F8  5054               	movf	(___fladd@a+1)^0,w,c
  2966   0008FA  5A50               	subwfb	(___fladd@b+1)^0,f,c
  2967   0008FC  5055               	movf	(___fladd@a+2)^0,w,c
  2968   0008FE  5A51               	subwfb	(___fladd@b+2)^0,f,c
  2969   000900  5056               	movf	(___fladd@a+3)^0,w,c
  2970   000902  5A52               	subwfb	(___fladd@b+3)^0,f,c
  2971   000904                     l734:
  2972   000904  504F               	movf	___fladd@b^0,w,c
  2973   000906  1050               	iorwf	(___fladd@b+1)^0,w,c
  2974   000908  1051               	iorwf	(___fladd@b+2)^0,w,c
  2975   00090A  1052               	iorwf	(___fladd@b+3)^0,w,c
  2976   00090C  A4D8               	btfss	status,2,c
  2977   00090E  EF8B  F004         	goto	u1541
  2978   000912  EF8D  F004         	goto	u1540
  2979   000916                     u1541:
  2980   000916  EFC2  F004         	goto	l1878
  2981   00091A                     u1540:
  2982   00091A  505E               	movf	___fladd@grs^0,w,c
  2983   00091C  A4D8               	btfss	status,2,c
  2984   00091E  EF93  F004         	goto	u1551
  2985   000922  EF95  F004         	goto	u1550
  2986   000926                     u1551:
  2987   000926  EFC2  F004         	goto	l1878
  2988   00092A                     u1550:
  2989   00092A  0E00               	movlw	0
  2990   00092C  6E4F               	movwf	?___fladd^0,c
  2991   00092E  0E00               	movlw	0
  2992   000930  6E50               	movwf	(?___fladd+1)^0,c
  2993   000932  0E00               	movlw	0
  2994   000934  6E51               	movwf	(?___fladd+2)^0,c
  2995   000936  0E00               	movlw	0
  2996   000938  6E52               	movwf	(?___fladd+3)^0,c
  2997   00093A  EF5B  F005         	goto	l726
  2998   00093E                     l1862:
  2999   00093E  90D8               	bcf	status,0,c
  3000   000940  364F               	rlcf	___fladd@b^0,f,c
  3001   000942  3650               	rlcf	(___fladd@b+1)^0,f,c
  3002   000944  3651               	rlcf	(___fladd@b+2)^0,f,c
  3003   000946  3652               	rlcf	(___fladd@b+3)^0,f,c
  3004   000948  AE5E               	btfss	___fladd@grs^0,7,c
  3005   00094A  EFA9  F004         	goto	u1561
  3006   00094E  EFAB  F004         	goto	u1560
  3007   000952                     u1561:
  3008   000952  EFAC  F004         	goto	l1868
  3009   000956                     u1560:
  3010   000956  804F               	bsf	___fladd@b^0,0,c
  3011   000958                     l1868:
  3012   000958  A05E               	btfss	___fladd@grs^0,0,c
  3013   00095A  EFB1  F004         	goto	u1571
  3014   00095E  EFB3  F004         	goto	u1570
  3015   000962                     u1571:
  3016   000962  EFB7  F004         	goto	l1872
  3017   000966                     u1570:
  3018   000966  80D8               	bsf	status,0,c
  3019   000968  365E               	rlcf	___fladd@grs^0,f,c
  3020   00096A  EFB9  F004         	goto	l1874
  3021   00096E                     l1872:
  3022   00096E  90D8               	bcf	status,0,c
  3023   000970  365E               	rlcf	___fladd@grs^0,f,c
  3024   000972                     l1874:
  3025   000972  505D               	movf	___fladd@bexp^0,w,c
  3026   000974  B4D8               	btfsc	status,2,c
  3027   000976  EFBF  F004         	goto	u1581
  3028   00097A  EFC1  F004         	goto	u1580
  3029   00097E                     u1581:
  3030   00097E  EFC2  F004         	goto	l1878
  3031   000982                     u1580:
  3032   000982  065D               	decf	___fladd@bexp^0,f,c
  3033   000984                     l1878:
  3034   000984  AE51               	btfss	(___fladd@b+2)^0,7,c
  3035   000986  EFC7  F004         	goto	u1591
  3036   00098A  EFC9  F004         	goto	u1590
  3037   00098E                     u1591:
  3038   00098E  EF9F  F004         	goto	l1862
  3039   000992                     u1590:
  3040   000992                     l731:
  3041   000992  6A5C               	clrf	___fladd@aexp^0,c
  3042   000994  AE5E               	btfss	___fladd@grs^0,7,c
  3043   000996  EFCF  F004         	goto	u1601
  3044   00099A  EFD1  F004         	goto	u1600
  3045   00099E                     u1601:
  3046   00099E  EFE9  F004         	goto	l743
  3047   0009A2                     u1600:
  3048   0009A2  C05E  F057         	movff	___fladd@grs,??___fladd
  3049   0009A6  0E7F               	movlw	127
  3050   0009A8  1657               	andwf	??___fladd^0,f,c
  3051   0009AA  B4D8               	btfsc	status,2,c
  3052   0009AC  EFDA  F004         	goto	u1611
  3053   0009B0  EFDC  F004         	goto	u1610
  3054   0009B4                     u1611:
  3055   0009B4  EFE0  F004         	goto	l744
  3056   0009B8                     u1610:
  3057   0009B8                     l1882:
  3058   0009B8  0E01               	movlw	1
  3059   0009BA  6E5C               	movwf	___fladd@aexp^0,c
  3060   0009BC  EFE9  F004         	goto	l743
  3061   0009C0                     l744:
  3062   0009C0  A04F               	btfss	___fladd@b^0,0,c
  3063   0009C2  EFE5  F004         	goto	u1621
  3064   0009C6  EFE7  F004         	goto	u1620
  3065   0009CA                     u1621:
  3066   0009CA  EFE9  F004         	goto	l743
  3067   0009CE                     u1620:
  3068   0009CE  EFDC  F004         	goto	l1882
  3069   0009D2                     l743:
  3070   0009D2  505C               	movf	___fladd@aexp^0,w,c
  3071   0009D4  B4D8               	btfsc	status,2,c
  3072   0009D6  EFEF  F004         	goto	u1631
  3073   0009DA  EFF1  F004         	goto	u1630
  3074   0009DE                     u1631:
  3075   0009DE  EF1C  F005         	goto	l1894
  3076   0009E2                     u1630:
  3077   0009E2  0E01               	movlw	1
  3078   0009E4  264F               	addwf	___fladd@b^0,f,c
  3079   0009E6  0E00               	movlw	0
  3080   0009E8  2250               	addwfc	(___fladd@b+1)^0,f,c
  3081   0009EA  2251               	addwfc	(___fladd@b+2)^0,f,c
  3082   0009EC  2252               	addwfc	(___fladd@b+3)^0,f,c
  3083   0009EE  A052               	btfss	(___fladd@b+3)^0,0,c
  3084   0009F0  EFFC  F004         	goto	u1641
  3085   0009F4  EFFE  F004         	goto	u1640
  3086   0009F8                     u1641:
  3087   0009F8  EF1C  F005         	goto	l1894
  3088   0009FC                     u1640:
  3089   0009FC  C04F  F057         	movff	___fladd@b,??___fladd
  3090   000A00  C050  F058         	movff	___fladd@b+1,??___fladd+1
  3091   000A04  C051  F059         	movff	___fladd@b+2,??___fladd+2
  3092   000A08  C052  F05A         	movff	___fladd@b+3,??___fladd+3
  3093   000A0C  345A               	rlcf	(??___fladd+3)^0,w,c
  3094   000A0E  325A               	rrcf	(??___fladd+3)^0,f,c
  3095   000A10  3259               	rrcf	(??___fladd+2)^0,f,c
  3096   000A12  3258               	rrcf	(??___fladd+1)^0,f,c
  3097   000A14  3257               	rrcf	??___fladd^0,f,c
  3098   000A16  C057  F04F         	movff	??___fladd,___fladd@b
  3099   000A1A  C058  F050         	movff	??___fladd+1,___fladd@b+1
  3100   000A1E  C059  F051         	movff	??___fladd+2,___fladd@b+2
  3101   000A22  C05A  F052         	movff	??___fladd+3,___fladd@b+3
  3102   000A26  285D               	incf	___fladd@bexp^0,w,c
  3103   000A28  B4D8               	btfsc	status,2,c
  3104   000A2A  EF19  F005         	goto	u1651
  3105   000A2E  EF1B  F005         	goto	u1650
  3106   000A32                     u1651:
  3107   000A32  EF1C  F005         	goto	l1894
  3108   000A36                     u1650:
  3109   000A36  2A5D               	incf	___fladd@bexp^0,f,c
  3110   000A38                     l1894:
  3111   000A38  285D               	incf	___fladd@bexp^0,w,c
  3112   000A3A  B4D8               	btfsc	status,2,c
  3113   000A3C  EF22  F005         	goto	u1661
  3114   000A40  EF24  F005         	goto	u1660
  3115   000A44                     u1661:
  3116   000A44  EF2C  F005         	goto	l1898
  3117   000A48                     u1660:
  3118   000A48  505D               	movf	___fladd@bexp^0,w,c
  3119   000A4A  A4D8               	btfss	status,2,c
  3120   000A4C  EF2A  F005         	goto	u1671
  3121   000A50  EF2C  F005         	goto	u1670
  3122   000A54                     u1671:
  3123   000A54  EF3D  F005         	goto	l750
  3124   000A58                     u1670:
  3125   000A58                     l1898:
  3126   000A58  0E00               	movlw	0
  3127   000A5A  6E4F               	movwf	___fladd@b^0,c
  3128   000A5C  0E00               	movlw	0
  3129   000A5E  6E50               	movwf	(___fladd@b+1)^0,c
  3130   000A60  0E00               	movlw	0
  3131   000A62  6E51               	movwf	(___fladd@b+2)^0,c
  3132   000A64  0E00               	movlw	0
  3133   000A66  6E52               	movwf	(___fladd@b+3)^0,c
  3134   000A68  505D               	movf	___fladd@bexp^0,w,c
  3135   000A6A  A4D8               	btfss	status,2,c
  3136   000A6C  EF3A  F005         	goto	u1681
  3137   000A70  EF3C  F005         	goto	u1680
  3138   000A74                     u1681:
  3139   000A74  EF3D  F005         	goto	l750
  3140   000A78                     u1680:
  3141   000A78  6A5B               	clrf	___fladd@signs^0,c
  3142   000A7A                     l750:
  3143   000A7A  A05D               	btfss	___fladd@bexp^0,0,c
  3144   000A7C  EF42  F005         	goto	u1691
  3145   000A80  EF44  F005         	goto	u1690
  3146   000A84                     u1691:
  3147   000A84  EF47  F005         	goto	l1904
  3148   000A88                     u1690:
  3149   000A88  8E51               	bsf	(___fladd@b+2)^0,7,c
  3150   000A8A  EF48  F005         	goto	l1906
  3151   000A8E                     l1904:
  3152   000A8E  9E51               	bcf	(___fladd@b+2)^0,7,c
  3153   000A90                     l1906:
  3154   000A90  90D8               	bcf	status,0,c
  3155   000A92  305D               	rrcf	___fladd@bexp^0,w,c
  3156   000A94  6E52               	movwf	(___fladd@b+3)^0,c
  3157   000A96  AE5B               	btfss	___fladd@signs^0,7,c
  3158   000A98  EF50  F005         	goto	u1701
  3159   000A9C  EF52  F005         	goto	u1700
  3160   000AA0                     u1701:
  3161   000AA0  EF53  F005         	goto	l1912
  3162   000AA4                     u1700:
  3163   000AA4  8E52               	bsf	(___fladd@b+3)^0,7,c
  3164   000AA6                     l1912:
  3165   000AA6  C04F  F04F         	movff	___fladd@b,?___fladd
  3166   000AAA  C050  F050         	movff	___fladd@b+1,?___fladd+1
  3167   000AAE  C051  F051         	movff	___fladd@b+2,?___fladd+2
  3168   000AB2  C052  F052         	movff	___fladd@b+3,?___fladd+3
  3169   000AB6                     l726:
  3170   000AB6  0012               	return		;funcret
  3171   000AB8                     __end_of___fladd:
  3172                           	callstack 0
  3173                           
  3174 ;; *************** function _keyboard_input *****************
  3175 ;; Defined at:
  3176 ;;		line 306 in file "2aa.c"
  3177 ;; Parameters:    Size  Location     Type
  3178 ;;  str             1   14[COMRAM] PTR unsigned char 
  3179 ;;		 -> main@str(100), 
  3180 ;; Auto vars:     Size  Location     Type
  3181 ;;		None
  3182 ;; Return value:  Size  Location     Type
  3183 ;;                  1    wreg      void 
  3184 ;; Registers used:
  3185 ;;		None
  3186 ;; Tracked objects:
  3187 ;;		On entry : 0/0
  3188 ;;		On exit  : 0/0
  3189 ;;		Unchanged: 0/0
  3190 ;; Data sizes:     COMRAM   BANK0   BANK1   BANK2   BANK3   BANK4   BANK5
  3191 ;;      Params:         1       0       0       0       0       0       0
  3192 ;;      Locals:         0       0       0       0       0       0       0
  3193 ;;      Temps:          0       0       0       0       0       0       0
  3194 ;;      Totals:         1       0       0       0       0       0       0
  3195 ;;Total ram usage:        1 bytes
  3196 ;; Hardware stack levels used: 1
  3197 ;; Hardware stack levels required when called: 5
  3198 ;; This function calls:
  3199 ;;		Nothing
  3200 ;; This function is called by:
  3201 ;;		_main
  3202 ;; This function uses a non-reentrant model
  3203 ;;
  3204                           
  3205                           	psect	text7
  3206   001B70                     __ptext7:
  3207                           	callstack 0
  3208   001B70                     _keyboard_input:
  3209                           	callstack 25
  3210   001B70  0012               	return		;funcret
  3211   001B72                     __end_of_keyboard_input:
  3212                           	callstack 0
  3213                           
  3214 ;; *************** function _Initialize *****************
  3215 ;; Defined at:
  3216 ;;		line 126 in file "2aa.c"
  3217 ;; Parameters:    Size  Location     Type
  3218 ;;		None
  3219 ;; Auto vars:     Size  Location     Type
  3220 ;;		None
  3221 ;; Return value:  Size  Location     Type
  3222 ;;                  1    wreg      void 
  3223 ;; Registers used:
  3224 ;;		wreg, status,2, status,0
  3225 ;; Tracked objects:
  3226 ;;		On entry : 0/0
  3227 ;;		On exit  : 0/0
  3228 ;;		Unchanged: 0/0
  3229 ;; Data sizes:     COMRAM   BANK0   BANK1   BANK2   BANK3   BANK4   BANK5
  3230 ;;      Params:         0       0       0       0       0       0       0
  3231 ;;      Locals:         0       0       0       0       0       0       0
  3232 ;;      Temps:          0       0       0       0       0       0       0
  3233 ;;      Totals:         0       0       0       0       0       0       0
  3234 ;;Total ram usage:        0 bytes
  3235 ;; Hardware stack levels used: 1
  3236 ;; Hardware stack levels required when called: 5
  3237 ;; This function calls:
  3238 ;;		Nothing
  3239 ;; This function is called by:
  3240 ;;		_main
  3241 ;; This function uses a non-reentrant model
  3242 ;;
  3243                           
  3244                           	psect	text8
  3245   00188A                     __ptext8:
  3246                           	callstack 0
  3247   00188A                     _Initialize:
  3248                           	callstack 25
  3249   00188A  50D3               	movf	211,w,c	;volatile
  3250   00188C  0B8F               	andlw	-113
  3251   00188E  0960               	iorlw	96
  3252   001890  6ED3               	movwf	211,c	;volatile
  3253   001892  8092               	bsf	146,0,c	;volatile
  3254   001894  50C1               	movf	193,w,c	;volatile
  3255   001896  0BF0               	andlw	-16
  3256   001898  090E               	iorlw	14
  3257   00189A  6EC1               	movwf	193,c	;volatile
  3258   00189C  0EC3               	movlw	-61
  3259   00189E  16C2               	andwf	194,f,c	;volatile
  3260   0018A0  98C1               	bcf	193,4,c	;volatile
  3261   0018A2  9AC1               	bcf	193,5,c	;volatile
  3262   0018A4  0EF8               	movlw	-8
  3263   0018A6  16C0               	andwf	192,f,c	;volatile
  3264   0018A8  50C0               	movf	192,w,c	;volatile
  3265   0018AA  0BC7               	andlw	-57
  3266   0018AC  0908               	iorlw	8
  3267   0018AE  6EC0               	movwf	192,c	;volatile
  3268   0018B0  80C2               	bsf	194,0,c	;volatile
  3269   0018B2  8EC0               	bsf	192,7,c	;volatile
  3270   0018B4  84CA               	bsf	202,2,c	;volatile
  3271   0018B6  0E03               	movlw	3
  3272   0018B8  12CA               	iorwf	202,f,c	;volatile
  3273   0018BA  50BD               	movf	189,w,c	;volatile
  3274   0018BC  0BF0               	andlw	-16
  3275   0018BE  090C               	iorlw	12
  3276   0018C0  6EBD               	movwf	189,c	;volatile
  3277   0018C2  0E9B               	movlw	155
  3278   0018C4  6ECB               	movwf	203,c	;volatile
  3279   0018C6  9494               	bcf	148,2,c	;volatile
  3280   0018C8  0EF1               	movlw	241
  3281   0018CA  1692               	andwf	146,f,c	;volatile
  3282   0018CC  0E01               	movlw	1
  3283   0018CE  6E93               	movwf	147,c	;volatile
  3284   0018D0  6A94               	clrf	148,c	;volatile
  3285   0018D2  0EF1               	movlw	241
  3286   0018D4  1689               	andwf	137,f,c	;volatile
  3287   0018D6  6A8B               	clrf	139,c	;volatile
  3288   0018D8  92F2               	bcf	242,1,c	;volatile
  3289   0018DA  88F2               	bsf	242,4,c	;volatile
  3290   0018DC  8C9D               	bsf	157,6,c	;volatile
  3291   0018DE  9C9E               	bcf	158,6,c	;volatile
  3292   0018E0  8CF2               	bsf	242,6,c	;volatile
  3293   0018E2  8EF2               	bsf	242,7,c	;volatile
  3294   0018E4  8ED0               	bsf	208,7,c	;volatile
  3295   0018E6  8EF2               	bsf	242,7,c	;volatile
  3296   0018E8  8CF2               	bsf	242,6,c	;volatile
  3297   0018EA  8C94               	bsf	148,6,c	;volatile
  3298   0018EC  8E94               	bsf	148,7,c	;volatile
  3299   0018EE  98AC               	bcf	172,4,c	;volatile
  3300   0018F0  96B8               	bcf	184,3,c	;volatile
  3301   0018F2  94AC               	bcf	172,2,c	;volatile
  3302   0018F4  0E33               	movlw	51
  3303   0018F6  6EAF               	movwf	175,c	;volatile
  3304   0018F8  8EAB               	bsf	171,7,c	;volatile
  3305   0018FA  989E               	bcf	158,4,c	;volatile
  3306   0018FC  9A9E               	bcf	158,5,c	;volatile
  3307   0018FE  8AAC               	bsf	172,5,c	;volatile
  3308   001900  88AB               	bsf	171,4,c	;volatile
  3309   001902  989D               	bcf	157,4,c	;volatile
  3310   001904  989F               	bcf	159,4,c	;volatile
  3311   001906  8A9D               	bsf	157,5,c	;volatile
  3312   001908  9A9F               	bcf	159,5,c	;volatile
  3313   00190A  82C2               	bsf	194,1,c	;volatile
  3314   00190C  0012               	return		;funcret
  3315   00190E                     __end_of_Initialize:
  3316                           	callstack 0
  3317                           
  3318 ;; *************** function _GetString *****************
  3319 ;; Defined at:
  3320 ;;		line 97 in file "2aa.c"
  3321 ;; Parameters:    Size  Location     Type
  3322 ;;  str             1   18[COMRAM] PTR unsigned char 
  3323 ;;		 -> main@str(100), 
  3324 ;; Auto vars:     Size  Location     Type
  3325 ;;		None
  3326 ;; Return value:  Size  Location     Type
  3327 ;;                  2   18[COMRAM] int 
  3328 ;; Registers used:
  3329 ;;		wreg, fsr1l, fsr1h, fsr2l, fsr2h, status,2, status,0, cstack
  3330 ;; Tracked objects:
  3331 ;;		On entry : 0/0
  3332 ;;		On exit  : 0/0
  3333 ;;		Unchanged: 0/0
  3334 ;; Data sizes:     COMRAM   BANK0   BANK1   BANK2   BANK3   BANK4   BANK5
  3335 ;;      Params:         2       0       0       0       0       0       0
  3336 ;;      Locals:         0       0       0       0       0       0       0
  3337 ;;      Temps:          1       0       0       0       0       0       0
  3338 ;;      Totals:         3       0       0       0       0       0       0
  3339 ;;Total ram usage:        3 bytes
  3340 ;; Hardware stack levels used: 1
  3341 ;; Hardware stack levels required when called: 6
  3342 ;; This function calls:
  3343 ;;		_ClearBuffer
  3344 ;;		_strcpy
  3345 ;; This function is called by:
  3346 ;;		_main
  3347 ;; This function uses a non-reentrant model
  3348 ;;
  3349                           
  3350                           	psect	text9
  3351   001976                     __ptext9:
  3352                           	callstack 0
  3353   001976                     _GetString:
  3354                           	callstack 24
  3355   001976  0EFF               	movlw	low (_buffer+65535)
  3356   001978  246F               	addwf	_buffer_size^0,w,c
  3357   00197A  6ED9               	movwf	fsr2l,c
  3358   00197C  0E00               	movlw	high (_buffer+65535)
  3359   00197E  2070               	addwfc	(_buffer_size+1)^0,w,c
  3360   001980  6EDA               	movwf	fsr2h,c
  3361   001982  0E0D               	movlw	13
  3362   001984  18DE               	xorwf	postinc2,w,c
  3363   001986  A4D8               	btfss	status,2,c
  3364   001988  EFC8  F00C         	goto	u2321
  3365   00198C  EFCA  F00C         	goto	u2320
  3366   001990                     u2321:
  3367   001990  EFE4  F00C         	goto	l2298
  3368   001994                     u2320:
  3369   001994  066F               	decf	_buffer_size^0,f,c
  3370   001996  A0D8               	btfss	status,0,c
  3371   001998  0670               	decf	(_buffer_size+1)^0,f,c
  3372   00199A  0E00               	movlw	low _buffer
  3373   00199C  246F               	addwf	_buffer_size^0,w,c
  3374   00199E  6ED9               	movwf	fsr2l,c
  3375   0019A0  0E01               	movlw	high _buffer
  3376   0019A2  2070               	addwfc	(_buffer_size+1)^0,w,c
  3377   0019A4  6EDA               	movwf	fsr2h,c
  3378   0019A6  6ADF               	clrf	indf2,c
  3379   0019A8  C013  F00F         	movff	GetString@str,strcpy@dest
  3380   0019AC  0E00               	movlw	low _buffer
  3381   0019AE  6E10               	movwf	strcpy@src^0,c
  3382   0019B0  0E01               	movlw	high _buffer
  3383   0019B2  6E11               	movwf	(strcpy@src+1)^0,c
  3384   0019B4  ECA0  F00D         	call	_strcpy	;wreg free
  3385   0019B8  EC45  F00D         	call	_ClearBuffer	;wreg free
  3386   0019BC  0E00               	movlw	0
  3387   0019BE  6E14               	movwf	(?_GetString+1)^0,c
  3388   0019C0  0E01               	movlw	1
  3389   0019C2  6E13               	movwf	?_GetString^0,c
  3390   0019C4  EFEC  F00C         	goto	l103
  3391   0019C8                     l2298:
  3392   0019C8  5013               	movf	GetString@str^0,w,c
  3393   0019CA  6ED9               	movwf	fsr2l,c
  3394   0019CC  6ADA               	clrf	fsr2h,c
  3395   0019CE  6ADF               	clrf	indf2,c
  3396   0019D0  0E00               	movlw	0
  3397   0019D2  6E14               	movwf	(?_GetString+1)^0,c
  3398   0019D4  0E00               	movlw	0
  3399   0019D6  6E13               	movwf	?_GetString^0,c
  3400   0019D8                     l103:
  3401   0019D8  0012               	return		;funcret
  3402   0019DA                     __end_of_GetString:
  3403                           	callstack 0
  3404                           
  3405 ;; *************** function _strcpy *****************
  3406 ;; Defined at:
  3407 ;;		line 3 in file "C:\Program Files\Microchip\xc8\v2.50\pic\sources\c99\common\strcpy.c"
  3408 ;; Parameters:    Size  Location     Type
  3409 ;;  dest            1   14[COMRAM] PTR unsigned char 
  3410 ;;		 -> main@str(100), 
  3411 ;;  src             2   15[COMRAM] PTR const unsigned char 
  3412 ;;		 -> buffer(100), 
  3413 ;; Auto vars:     Size  Location     Type
  3414 ;;  d               1   17[COMRAM] PTR unsigned char 
  3415 ;;		 -> main@str(100), 
  3416 ;; Return value:  Size  Location     Type
  3417 ;;                  1   14[COMRAM] PTR unsigned char 
  3418 ;; Registers used:
  3419 ;;		wreg, fsr1l, fsr1h, fsr2l, fsr2h, status,2, status,0
  3420 ;; Tracked objects:
  3421 ;;		On entry : 0/0
  3422 ;;		On exit  : 0/0
  3423 ;;		Unchanged: 0/0
  3424 ;; Data sizes:     COMRAM   BANK0   BANK1   BANK2   BANK3   BANK4   BANK5
  3425 ;;      Params:         3       0       0       0       0       0       0
  3426 ;;      Locals:         1       0       0       0       0       0       0
  3427 ;;      Temps:          0       0       0       0       0       0       0
  3428 ;;      Totals:         4       0       0       0       0       0       0
  3429 ;;Total ram usage:        4 bytes
  3430 ;; Hardware stack levels used: 1
  3431 ;; Hardware stack levels required when called: 5
  3432 ;; This function calls:
  3433 ;;		Nothing
  3434 ;; This function is called by:
  3435 ;;		_GetString
  3436 ;; This function uses a non-reentrant model
  3437 ;;
  3438                           
  3439                           	psect	text10
  3440   001B40                     __ptext10:
  3441                           	callstack 0
  3442   001B40                     _strcpy:
  3443                           	callstack 24
  3444   001B40  C00F  F012         	movff	strcpy@dest,strcpy@d
  3445   001B44                     l1720:
  3446   001B44  C010  FFD9         	movff	strcpy@src,fsr2l
  3447   001B48  C011  FFDA         	movff	strcpy@src+1,fsr2h
  3448   001B4C  4A10               	infsnz	strcpy@src^0,f,c
  3449   001B4E  2A11               	incf	(strcpy@src+1)^0,f,c
  3450   001B50  2A12               	incf	strcpy@d^0,f,c
  3451   001B52  0412               	decf	strcpy@d^0,w,c
  3452   001B54  6EE1               	movwf	fsr1l,c
  3453   001B56  6AE2               	clrf	fsr1h,c
  3454   001B58  CFDF FFE7          	movff	indf2,indf1
  3455   001B5C  50E7               	movf	indf1,w,c
  3456   001B5E  A4D8               	btfss	status,2,c
  3457   001B60  EFB4  F00D         	goto	u1311
  3458   001B64  EFB6  F00D         	goto	u1310
  3459   001B68                     u1311:
  3460   001B68  EFA2  F00D         	goto	l1720
  3461   001B6C                     u1310:
  3462   001B6C  0012               	return		;funcret
  3463   001B6E                     __end_of_strcpy:
  3464                           	callstack 0
  3465                           
  3466 ;; *************** function _ClearBuffer *****************
  3467 ;; Defined at:
  3468 ;;		line 84 in file "2aa.c"
  3469 ;; Parameters:    Size  Location     Type
  3470 ;;		None
  3471 ;; Auto vars:     Size  Location     Type
  3472 ;;  i               2   14[COMRAM] int 
  3473 ;; Return value:  Size  Location     Type
  3474 ;;                  1    wreg      void 
  3475 ;; Registers used:
  3476 ;;		wreg, fsr2l, fsr2h, status,2, status,0
  3477 ;; Tracked objects:
  3478 ;;		On entry : 0/0
  3479 ;;		On exit  : 0/0
  3480 ;;		Unchanged: 0/0
  3481 ;; Data sizes:     COMRAM   BANK0   BANK1   BANK2   BANK3   BANK4   BANK5
  3482 ;;      Params:         0       0       0       0       0       0       0
  3483 ;;      Locals:         2       0       0       0       0       0       0
  3484 ;;      Temps:          0       0       0       0       0       0       0
  3485 ;;      Totals:         2       0       0       0       0       0       0
  3486 ;;Total ram usage:        2 bytes
  3487 ;; Hardware stack levels used: 1
  3488 ;; Hardware stack levels required when called: 5
  3489 ;; This function calls:
  3490 ;;		Nothing
  3491 ;; This function is called by:
  3492 ;;		_GetString
  3493 ;; This function uses a non-reentrant model
  3494 ;;
  3495                           
  3496                           	psect	text11
  3497   001A8A                     __ptext11:
  3498                           	callstack 0
  3499   001A8A                     _ClearBuffer:
  3500                           	callstack 24
  3501   001A8A  0E00               	movlw	0
  3502   001A8C  6E10               	movwf	(ClearBuffer@i+1)^0,c
  3503   001A8E  0E00               	movlw	0
  3504   001A90  6E0F               	movwf	ClearBuffer@i^0,c
  3505   001A92                     l1710:
  3506   001A92  0E00               	movlw	low _buffer
  3507   001A94  240F               	addwf	ClearBuffer@i^0,w,c
  3508   001A96  6ED9               	movwf	fsr2l,c
  3509   001A98  0E01               	movlw	high _buffer
  3510   001A9A  2010               	addwfc	(ClearBuffer@i+1)^0,w,c
  3511   001A9C  6EDA               	movwf	fsr2h,c
  3512   001A9E  6ADF               	clrf	indf2,c
  3513   001AA0  4A0F               	infsnz	ClearBuffer@i^0,f,c
  3514   001AA2  2A10               	incf	(ClearBuffer@i+1)^0,f,c
  3515   001AA4  BE10               	btfsc	(ClearBuffer@i+1)^0,7,c
  3516   001AA6  EF5E  F00D         	goto	u1301
  3517   001AAA  5010               	movf	(ClearBuffer@i+1)^0,w,c
  3518   001AAC  E109               	bnz	u1300
  3519   001AAE  0E64               	movlw	100
  3520   001AB0  5C0F               	subwf	ClearBuffer@i^0,w,c
  3521   001AB2  A0D8               	btfss	status,0,c
  3522   001AB4  EF5E  F00D         	goto	u1301
  3523   001AB8  EF60  F00D         	goto	u1300
  3524   001ABC                     u1301:
  3525   001ABC  EF49  F00D         	goto	l1710
  3526   001AC0                     u1300:
  3527   001AC0  0E00               	movlw	0
  3528   001AC2  6E70               	movwf	(_buffer_size+1)^0,c
  3529   001AC4  0E00               	movlw	0
  3530   001AC6  6E6F               	movwf	_buffer_size^0,c
  3531   001AC8  0012               	return		;funcret
  3532   001ACA                     __end_of_ClearBuffer:
  3533                           	callstack 0
  3534                           
  3535 ;; *************** function _Lo_ISR *****************
  3536 ;; Defined at:
  3537 ;;		line 109 in file "2aa.c"
  3538 ;; Parameters:    Size  Location     Type
  3539 ;;		None
  3540 ;; Auto vars:     Size  Location     Type
  3541 ;;		None
  3542 ;; Return value:  Size  Location     Type
  3543 ;;                  1    wreg      void 
  3544 ;; Registers used:
  3545 ;;		wreg, fsr2l, fsr2h, status,2, status,0, cstack
  3546 ;; Tracked objects:
  3547 ;;		On entry : 0/0
  3548 ;;		On exit  : 0/0
  3549 ;;		Unchanged: 0/0
  3550 ;; Data sizes:     COMRAM   BANK0   BANK1   BANK2   BANK3   BANK4   BANK5
  3551 ;;      Params:         0       0       0       0       0       0       0
  3552 ;;      Locals:         0       0       0       0       0       0       0
  3553 ;;      Temps:          5       0       0       0       0       0       0
  3554 ;;      Totals:         5       0       0       0       0       0       0
  3555 ;;Total ram usage:        5 bytes
  3556 ;; Hardware stack levels used: 1
  3557 ;; Hardware stack levels required when called: 4
  3558 ;; This function calls:
  3559 ;;		_MyusartRead
  3560 ;; This function is called by:
  3561 ;;		Interrupt level 1
  3562 ;; This function uses a non-reentrant model
  3563 ;;
  3564                           
  3565                           	psect	intcodelo
  3566   000018                     __pintcodelo:
  3567                           	callstack 0
  3568   000018                     _Lo_ISR:
  3569                           	callstack 24
  3570                           
  3571                           ;incstack = 0
  3572   000018  8071               	bsf	int$flags,0,c	;set compiler interrupt flag (level 1)
  3573   00001A  CFD8 F00A          	movff	status,??_Lo_ISR
  3574   00001E  CFE8 F00B          	movff	wreg,??_Lo_ISR+1
  3575   000022  CFE0 F00C          	movff	bsr,??_Lo_ISR+2
  3576   000026  CFD9 F00D          	movff	fsr2l,??_Lo_ISR+3
  3577   00002A  CFDA F00E          	movff	fsr2h,??_Lo_ISR+4
  3578   00002E  AA9E               	btfss	3998,5,c	;volatile
  3579   000030  EF1C  F000         	goto	i1u237_21
  3580   000034  EF1E  F000         	goto	i1u237_20
  3581   000038                     i1u237_21:
  3582   000038  EF2A  F000         	goto	i1l111
  3583   00003C                     i1u237_20:
  3584   00003C  A2AB               	btfss	171,1,c	;volatile
  3585   00003E  EF23  F000         	goto	i1u238_21
  3586   000042  EF25  F000         	goto	i1u238_20
  3587   000046                     i1u238_21:
  3588   000046  EF28  F000         	goto	i1l2412
  3589   00004A                     i1u238_20:
  3590   00004A  98AB               	bcf	4011,4,c	;volatile
  3591   00004C  0000               	nop	
  3592   00004E  88AB               	bsf	4011,4,c	;volatile
  3593   000050                     i1l2412:
  3594   000050  EC1E  F00D         	call	_MyusartRead	;wreg free
  3595   000054                     i1l111:
  3596   000054  C00E  FFDA         	movff	??_Lo_ISR+4,fsr2h
  3597   000058  C00D  FFD9         	movff	??_Lo_ISR+3,fsr2l
  3598   00005C  C00C  FFE0         	movff	??_Lo_ISR+2,bsr
  3599   000060  C00B  FFE8         	movff	??_Lo_ISR+1,wreg
  3600   000064  C00A  FFD8         	movff	??_Lo_ISR,status
  3601   000068  9071               	bcf	int$flags,0,c	;clear compiler interrupt flag (level 1)
  3602   00006A  0010               	retfie	
  3603   00006C                     __end_of_Lo_ISR:
  3604                           	callstack 0
  3605                           
  3606 ;; *************** function _MyusartRead *****************
  3607 ;; Defined at:
  3608 ;;		line 90 in file "2aa.c"
  3609 ;; Parameters:    Size  Location     Type
  3610 ;;		None
  3611 ;; Auto vars:     Size  Location     Type
  3612 ;;  data            1    8[COMRAM] unsigned char 
  3613 ;; Return value:  Size  Location     Type
  3614 ;;                  1    wreg      void 
  3615 ;; Registers used:
  3616 ;;		wreg, fsr2l, fsr2h, status,2, status,0, cstack
  3617 ;; Tracked objects:
  3618 ;;		On entry : 0/0
  3619 ;;		On exit  : 0/0
  3620 ;;		Unchanged: 0/0
  3621 ;; Data sizes:     COMRAM   BANK0   BANK1   BANK2   BANK3   BANK4   BANK5
  3622 ;;      Params:         0       0       0       0       0       0       0
  3623 ;;      Locals:         1       0       0       0       0       0       0
  3624 ;;      Temps:          1       0       0       0       0       0       0
  3625 ;;      Totals:         2       0       0       0       0       0       0
  3626 ;;Total ram usage:        2 bytes
  3627 ;; Hardware stack levels used: 1
  3628 ;; Hardware stack levels required when called: 3
  3629 ;; This function calls:
  3630 ;;		_putch
  3631 ;; This function is called by:
  3632 ;;		_Lo_ISR
  3633 ;; This function uses a non-reentrant model
  3634 ;;
  3635                           
  3636                           	psect	text13
  3637   001A3C                     __ptext13:
  3638                           	callstack 0
  3639   001A3C                     _MyusartRead:
  3640                           	callstack 24
  3641   001A3C  CFAE F009          	movff	4014,MyusartRead@data	;volatile
  3642   001A40  C009  F008         	movff	MyusartRead@data,??_MyusartRead
  3643   001A44  0EE0               	movlw	224
  3644   001A46  2608               	addwf	??_MyusartRead^0,f,c
  3645   001A48  0E5E               	movlw	94
  3646   001A4A  6408               	cpfsgt	??_MyusartRead^0,c
  3647   001A4C  EF2A  F00D         	goto	i1u230_21
  3648   001A50  EF2C  F00D         	goto	i1u230_20
  3649   001A54                     i1u230_21:
  3650   001A54  EF37  F00D         	goto	i1l2278
  3651   001A58                     i1u230_20:
  3652   001A58  0E0D               	movlw	13
  3653   001A5A  1809               	xorwf	MyusartRead@data^0,w,c
  3654   001A5C  B4D8               	btfsc	status,2,c
  3655   001A5E  EF33  F00D         	goto	i1u231_21
  3656   001A62  EF35  F00D         	goto	i1u231_20
  3657   001A66                     i1u231_21:
  3658   001A66  EF37  F00D         	goto	i1l2278
  3659   001A6A                     i1u231_20:
  3660   001A6A  EF44  F00D         	goto	i1l99
  3661   001A6E                     i1l2278:
  3662   001A6E  0E00               	movlw	low _buffer
  3663   001A70  246F               	addwf	_buffer_size^0,w,c
  3664   001A72  6ED9               	movwf	fsr2l,c
  3665   001A74  0E01               	movlw	high _buffer
  3666   001A76  2070               	addwfc	(_buffer_size+1)^0,w,c
  3667   001A78  6EDA               	movwf	fsr2h,c
  3668   001A7A  C009  FFDF         	movff	MyusartRead@data,indf2
  3669   001A7E  4A6F               	infsnz	_buffer_size^0,f,c
  3670   001A80  2A70               	incf	(_buffer_size+1)^0,f,c
  3671   001A82  5009               	movf	MyusartRead@data^0,w,c
  3672   001A84  ECED  F00C         	call	_putch
  3673   001A88                     i1l99:
  3674   001A88  0012               	return		;funcret
  3675   001A8A                     __end_of_MyusartRead:
  3676                           	callstack 0
  3677                           
  3678 ;; *************** function _putch *****************
  3679 ;; Defined at:
  3680 ;;		line 72 in file "2aa.c"
  3681 ;; Parameters:    Size  Location     Type
  3682 ;;  data            1    wreg     unsigned char 
  3683 ;; Auto vars:     Size  Location     Type
  3684 ;;  data            1    6[COMRAM] unsigned char 
  3685 ;; Return value:  Size  Location     Type
  3686 ;;                  1    wreg      void 
  3687 ;; Registers used:
  3688 ;;		wreg, status,2, status,0
  3689 ;; Tracked objects:
  3690 ;;		On entry : 0/0
  3691 ;;		On exit  : 0/0
  3692 ;;		Unchanged: 0/0
  3693 ;; Data sizes:     COMRAM   BANK0   BANK1   BANK2   BANK3   BANK4   BANK5
  3694 ;;      Params:         0       0       0       0       0       0       0
  3695 ;;      Locals:         1       0       0       0       0       0       0
  3696 ;;      Temps:          0       0       0       0       0       0       0
  3697 ;;      Totals:         1       0       0       0       0       0       0
  3698 ;;Total ram usage:        1 bytes
  3699 ;; Hardware stack levels used: 1
  3700 ;; Hardware stack levels required when called: 2
  3701 ;; This function calls:
  3702 ;;		Nothing
  3703 ;; This function is called by:
  3704 ;;		_MyusartRead
  3705 ;; This function uses a non-reentrant model
  3706 ;;
  3707                           
  3708                           	psect	text14
  3709   0019DA                     __ptext14:
  3710                           	callstack 0
  3711   0019DA                     _putch:
  3712                           	callstack 24
  3713                           
  3714                           ;incstack = 0
  3715                           ;putch@data stored from wreg
  3716   0019DA  6E07               	movwf	putch@data^0,c
  3717   0019DC  0E0A               	movlw	10
  3718   0019DE  1807               	xorwf	putch@data^0,w,c
  3719   0019E0  B4D8               	btfsc	status,2,c
  3720   0019E2  EFF5  F00C         	goto	i1u125_21
  3721   0019E6  EFF7  F00C         	goto	i1u125_20
  3722   0019EA                     i1u125_21:
  3723   0019EA  EF00  F00D         	goto	i1l80
  3724   0019EE                     i1u125_20:
  3725   0019EE  0E0D               	movlw	13
  3726   0019F0  1807               	xorwf	putch@data^0,w,c
  3727   0019F2  A4D8               	btfss	status,2,c
  3728   0019F4  EFFE  F00C         	goto	i1u126_21
  3729   0019F8  EF00  F00D         	goto	i1u126_20
  3730   0019FC                     i1u126_21:
  3731   0019FC  EF14  F00D         	goto	i1l87
  3732   001A00                     i1u126_20:
  3733   001A00                     i1l80:
  3734   001A00  A2AC               	btfss	172,1,c	;volatile
  3735   001A02  EF05  F00D         	goto	i1u127_21
  3736   001A06  EF07  F00D         	goto	i1u127_20
  3737   001A0A                     i1u127_21:
  3738   001A0A  EF00  F00D         	goto	i1l80
  3739   001A0E                     i1u127_20:
  3740   001A0E  0E0D               	movlw	13
  3741   001A10  6EAD               	movwf	173,c	;volatile
  3742   001A12                     i1l83:
  3743   001A12  A2AC               	btfss	172,1,c	;volatile
  3744   001A14  EF0E  F00D         	goto	i1u128_21
  3745   001A18  EF10  F00D         	goto	i1u128_20
  3746   001A1C                     i1u128_21:
  3747   001A1C  EF09  F00D         	goto	i1l83
  3748   001A20                     i1u128_20:
  3749   001A20  0E0A               	movlw	10
  3750   001A22  6EAD               	movwf	173,c	;volatile
  3751   001A24  EF1D  F00D         	goto	i1l90
  3752   001A28                     i1l87:
  3753   001A28  A2AC               	btfss	172,1,c	;volatile
  3754   001A2A  EF19  F00D         	goto	i1u129_21
  3755   001A2E  EF1B  F00D         	goto	i1u129_20
  3756   001A32                     i1u129_21:
  3757   001A32  EF14  F00D         	goto	i1l87
  3758   001A36                     i1u129_20:
  3759   001A36  C007  FFAD         	movff	putch@data,4013	;volatile
  3760   001A3A                     i1l90:
  3761   001A3A  0012               	return		;funcret
  3762   001A3C                     __end_of_putch:
  3763                           	callstack 0
  3764                           
  3765 ;; *************** function _H_ISR *****************
  3766 ;; Defined at:
  3767 ;;		line 264 in file "2aa.c"
  3768 ;; Parameters:    Size  Location     Type
  3769 ;;		None
  3770 ;; Auto vars:     Size  Location     Type
  3771 ;;  value           2    4[COMRAM] int 
  3772 ;; Return value:  Size  Location     Type
  3773 ;;                  1    wreg      void 
  3774 ;; Registers used:
  3775 ;;		wreg, status,2, status,0, cstack
  3776 ;; Tracked objects:
  3777 ;;		On entry : 0/0
  3778 ;;		On exit  : 0/0
  3779 ;;		Unchanged: 0/0
  3780 ;; Data sizes:     COMRAM   BANK0   BANK1   BANK2   BANK3   BANK4   BANK5
  3781 ;;      Params:         0       0       0       0       0       0       0
  3782 ;;      Locals:         2       0       0       0       0       0       0
  3783 ;;      Temps:          2       0       0       0       0       0       0
  3784 ;;      Totals:         4       0       0       0       0       0       0
  3785 ;;Total ram usage:        4 bytes
  3786 ;; Hardware stack levels used: 1
  3787 ;; Hardware stack levels required when called: 1
  3788 ;; This function calls:
  3789 ;;		_button_pressed
  3790 ;;		_variable_register_changed
  3791 ;; This function is called by:
  3792 ;;		Interrupt level 2
  3793 ;; This function uses a non-reentrant model
  3794 ;;
  3795                           
  3796                           	psect	intcode
  3797   000008                     __pintcode:
  3798                           	callstack 0
  3799   000008                     _H_ISR:
  3800                           	callstack 24
  3801                           
  3802                           ;incstack = 0
  3803   000008  8271               	bsf	int$flags,1,c	;set compiler interrupt flag (level 2)
  3804   00000A  ED87  F00C         	call	int_func,f	;refresh shadow registers
  3805                           
  3806                           	psect	intcode_body
  3807   00190E                     __pintcode_body:
  3808                           	callstack 24
  3809   00190E                     int_func:
  3810                           	callstack 24
  3811   00190E  0006               	pop		; remove dummy address from shadow register refresh
  3812   001910  AC9E               	btfss	158,6,c	;volatile
  3813   001912  EF8D  F00C         	goto	i2u239_41
  3814   001916  EF8F  F00C         	goto	i2u239_40
  3815   00191A                     i2u239_41:
  3816   00191A  EFA7  F00C         	goto	i2l2430
  3817   00191E                     i2u239_40:
  3818   00191E  50C4               	movf	196,w,c	;volatile
  3819   001920  6E04               	movwf	(??_H_ISR+1)^0,c
  3820   001922  6A03               	clrf	??_H_ISR^0,c
  3821   001924  50C3               	movf	195,w,c	;volatile
  3822   001926  2403               	addwf	??_H_ISR^0,w,c
  3823   001928  6E05               	movwf	H_ISR@value^0,c
  3824   00192A  0E00               	movlw	0
  3825   00192C  2004               	addwfc	(??_H_ISR+1)^0,w,c
  3826   00192E  6E06               	movwf	(H_ISR@value+1)^0,c
  3827   001930  C005  F001         	movff	H_ISR@value,variable_register_changed@value
  3828   001934  C006  F002         	movff	H_ISR@value+1,variable_register_changed@value+1
  3829   001938  ECB9  F00D         	call	_variable_register_changed	;wreg free
  3830   00193C  9C9E               	bcf	158,6,c	;volatile
  3831   00193E  0E07               	movlw	7
  3832   001940  6E03               	movwf	??_H_ISR^0,c
  3833   001942  0E7D               	movlw	125
  3834   001944                     i2u254_47:
  3835   001944  2EE8               	decfsz	wreg,f,c
  3836   001946  D7FE               	bra	i2u254_47
  3837   001948  2E03               	decfsz	??_H_ISR^0,f,c
  3838   00194A  D7FC               	bra	i2u254_47
  3839   00194C  0000               	nop	
  3840   00194E                     i2l2430:
  3841   00194E  A2F2               	btfss	242,1,c	;volatile
  3842   001950  EFAC  F00C         	goto	i2u240_41
  3843   001954  EFAE  F00C         	goto	i2u240_40
  3844   001958                     i2u240_41:
  3845   001958  EFB9  F00C         	goto	i2l152
  3846   00195C                     i2u240_40:
  3847   00195C  EC65  F00D         	call	_button_pressed	;wreg free
  3848   001960  0E41               	movlw	65
  3849   001962  6E03               	movwf	??_H_ISR^0,c
  3850   001964  0EEE               	movlw	238
  3851   001966                     i2u255_47:
  3852   001966  2EE8               	decfsz	wreg,f,c
  3853   001968  D7FE               	bra	i2u255_47
  3854   00196A  2E03               	decfsz	??_H_ISR^0,f,c
  3855   00196C  D7FC               	bra	i2u255_47
  3856   00196E  D000               	nop2	
  3857   001970  92F2               	bcf	242,1,c	;volatile
  3858   001972                     i2l152:
  3859   001972  9271               	bcf	int$flags,1,c	;clear compiler interrupt flag (level 2)
  3860   001974  0011               	retfie		f
  3861   001976                     __end_of_H_ISR:
  3862                           	callstack 0
  3863                           
  3864 ;; *************** function _variable_register_changed *****************
  3865 ;; Defined at:
  3866 ;;		line 295 in file "2aa.c"
  3867 ;; Parameters:    Size  Location     Type
  3868 ;;  value           2    0[COMRAM] int 
  3869 ;; Auto vars:     Size  Location     Type
  3870 ;;		None
  3871 ;; Return value:  Size  Location     Type
  3872 ;;                  1    wreg      void 
  3873 ;; Registers used:
  3874 ;;		None
  3875 ;; Tracked objects:
  3876 ;;		On entry : 0/0
  3877 ;;		On exit  : 0/0
  3878 ;;		Unchanged: 0/0
  3879 ;; Data sizes:     COMRAM   BANK0   BANK1   BANK2   BANK3   BANK4   BANK5
  3880 ;;      Params:         2       0       0       0       0       0       0
  3881 ;;      Locals:         0       0       0       0       0       0       0
  3882 ;;      Temps:          0       0       0       0       0       0       0
  3883 ;;      Totals:         2       0       0       0       0       0       0
  3884 ;;Total ram usage:        2 bytes
  3885 ;; Hardware stack levels used: 1
  3886 ;; This function calls:
  3887 ;;		Nothing
  3888 ;; This function is called by:
  3889 ;;		_H_ISR
  3890 ;; This function uses a non-reentrant model
  3891 ;;
  3892                           
  3893                           	psect	text16
  3894   001B72                     __ptext16:
  3895                           	callstack 0
  3896   001B72                     _variable_register_changed:
  3897                           	callstack 24
  3898   001B72  0012               	return		;funcret
  3899   001B74                     __end_of_variable_register_changed:
  3900                           	callstack 0
  3901                           
  3902 ;; *************** function _button_pressed *****************
  3903 ;; Defined at:
  3904 ;;		line 281 in file "2aa.c"
  3905 ;; Parameters:    Size  Location     Type
  3906 ;;		None
  3907 ;; Auto vars:     Size  Location     Type
  3908 ;;		None
  3909 ;; Return value:  Size  Location     Type
  3910 ;;                  1    wreg      void 
  3911 ;; Registers used:
  3912 ;;		wreg, status,2, status,0
  3913 ;; Tracked objects:
  3914 ;;		On entry : 0/0
  3915 ;;		On exit  : 0/0
  3916 ;;		Unchanged: 0/0
  3917 ;; Data sizes:     COMRAM   BANK0   BANK1   BANK2   BANK3   BANK4   BANK5
  3918 ;;      Params:         0       0       0       0       0       0       0
  3919 ;;      Locals:         0       0       0       0       0       0       0
  3920 ;;      Temps:          0       0       0       0       0       0       0
  3921 ;;      Totals:         0       0       0       0       0       0       0
  3922 ;;Total ram usage:        0 bytes
  3923 ;; Hardware stack levels used: 1
  3924 ;; This function calls:
  3925 ;;		Nothing
  3926 ;; This function is called by:
  3927 ;;		_H_ISR
  3928 ;; This function uses a non-reentrant model
  3929 ;;
  3930                           
  3931                           	psect	text17
  3932   001ACA                     __ptext17:
  3933                           	callstack 0
  3934   001ACA                     _button_pressed:
  3935                           	callstack 24
  3936   001ACA  0100               	movlb	0	; () banked
  3937   001ACC  05FA               	decf	_mode& (0+255),w,b
  3938   001ACE  11FB               	iorwf	(_mode+1)& (0+255),w,b
  3939   001AD0  A4D8               	btfss	status,2,c
  3940   001AD2  EF6D  F00D         	goto	i2u235_41
  3941   001AD6  EF6F  F00D         	goto	i2u235_40
  3942   001ADA                     i2u235_41:
  3943   001ADA  EF75  F00D         	goto	i2l2402
  3944   001ADE                     i2u235_40:
  3945   001ADE                     
  3946                           ; BSR set to: 0
  3947   001ADE  0E00               	movlw	0
  3948   001AE0  6FFB               	movwf	(_mode+1)& (0+255),b
  3949   001AE2  0E02               	movlw	2
  3950   001AE4  6FFA               	movwf	_mode& (0+255),b
  3951   001AE6  EF83  F00D         	goto	i2l160
  3952   001AEA                     i2l2402:
  3953                           
  3954                           ; BSR set to: 0
  3955   001AEA  0E02               	movlw	2
  3956   001AEC  19FA               	xorwf	_mode& (0+255),w,b
  3957   001AEE  11FB               	iorwf	(_mode+1)& (0+255),w,b
  3958   001AF0  A4D8               	btfss	status,2,c
  3959   001AF2  EF7D  F00D         	goto	i2u236_41
  3960   001AF6  EF7F  F00D         	goto	i2u236_40
  3961   001AFA                     i2u236_41:
  3962   001AFA  EF83  F00D         	goto	i2l160
  3963   001AFE                     i2u236_40:
  3964   001AFE                     
  3965                           ; BSR set to: 0
  3966   001AFE  0E00               	movlw	0
  3967   001B00  6FFB               	movwf	(_mode+1)& (0+255),b
  3968   001B02  0E01               	movlw	1
  3969   001B04  6FFA               	movwf	_mode& (0+255),b
  3970   001B06                     i2l160:
  3971                           
  3972                           ; BSR set to: 0
  3973   001B06  0012               	return		;funcret
  3974   001B08                     __end_of_button_pressed:
  3975                           	callstack 0
  3976                           
  3977                           	psect	smallconst
  3978   000600                     __psmallconst:
  3979                           	callstack 0
  3980   000600  00                 	db	0
  3981   000601  00                 	db	0	; dummy byte at the end
  3982   000000                     __activetblptr  equ	0
  3983                           
  3984                           	psect	rparam
  3985   000001                     ___rparam_used  equ	1
  3986   000000                     ___param_bank   equ	0
  3987   000000                     __Lparam        equ	__Lrparam
  3988   000000                     __Hparam        equ	__Hrparam
  3989                           
  3990                           	psect	temp
  3991   000071                     btemp:
  3992                           	callstack 0
  3993   000071                     	ds	1
  3994   000071                     int$flags       set	btemp
  3995   000072                     wtemp8          set	btemp+1
  3996   000072                     ttemp5          set	btemp+1
  3997   000075                     ttemp6          set	btemp+4
  3998   000079                     ttemp7          set	btemp+8
  3999                           
  4000                           	psect	idloc
  4001                           
  4002                           ;Config register IDLOC0 @ 0x200000
  4003                           ;	unspecified, using default values
  4004   200000                     	org	2097152
  4005   200000  FF                 	db	255
  4006                           
  4007                           ;Config register IDLOC1 @ 0x200001
  4008                           ;	unspecified, using default values
  4009   200001                     	org	2097153
  4010   200001  FF                 	db	255
  4011                           
  4012                           ;Config register IDLOC2 @ 0x200002
  4013                           ;	unspecified, using default values
  4014   200002                     	org	2097154
  4015   200002  FF                 	db	255
  4016                           
  4017                           ;Config register IDLOC3 @ 0x200003
  4018                           ;	unspecified, using default values
  4019   200003                     	org	2097155
  4020   200003  FF                 	db	255
  4021                           
  4022                           ;Config register IDLOC4 @ 0x200004
  4023                           ;	unspecified, using default values
  4024   200004                     	org	2097156
  4025   200004  FF                 	db	255
  4026                           
  4027                           ;Config register IDLOC5 @ 0x200005
  4028                           ;	unspecified, using default values
  4029   200005                     	org	2097157
  4030   200005  FF                 	db	255
  4031                           
  4032                           ;Config register IDLOC6 @ 0x200006
  4033                           ;	unspecified, using default values
  4034   200006                     	org	2097158
  4035   200006  FF                 	db	255
  4036                           
  4037                           ;Config register IDLOC7 @ 0x200007
  4038                           ;	unspecified, using default values
  4039   200007                     	org	2097159
  4040   200007  FF                 	db	255
  4041                           
  4042                           	psect	config
  4043                           
  4044                           ; Padding undefined space
  4045   300000                     	org	3145728
  4046   300000  FF                 	db	255
  4047                           
  4048                           ;Config register CONFIG1H @ 0x300001
  4049                           ;	Oscillator Selection bits
  4050                           ;	OSC = INTIO67, Internal oscillator block, port function on RA6 and RA7
  4051                           ;	Fail-Safe Clock Monitor Enable bit
  4052                           ;	FCMEN = OFF, Fail-Safe Clock Monitor disabled
  4053                           ;	Internal/External Oscillator Switchover bit
  4054                           ;	IESO = ON, Oscillator Switchover mode enabled
  4055   300001                     	org	3145729
  4056   300001  88                 	db	136
  4057                           
  4058                           ;Config register CONFIG2L @ 0x300002
  4059                           ;	Power-up Timer Enable bit
  4060                           ;	PWRT = OFF, PWRT disabled
  4061                           ;	Brown-out Reset Enable bits
  4062                           ;	BOREN = SBORDIS, Brown-out Reset enabled in hardware only (SBOREN is disabled)
  4063                           ;	Brown Out Reset Voltage bits
  4064                           ;	BORV = 3, Minimum setting
  4065   300002                     	org	3145730
  4066   300002  1F                 	db	31
  4067                           
  4068                           ;Config register CONFIG2H @ 0x300003
  4069                           ;	Watchdog Timer Enable bit
  4070                           ;	WDT = OFF, WDT disabled (control is placed on the SWDTEN bit)
  4071                           ;	Watchdog Timer Postscale Select bits
  4072                           ;	WDTPS = 1, 1:1
  4073   300003                     	org	3145731
  4074   300003  00                 	db	0
  4075                           
  4076                           ; Padding undefined space
  4077   300004                     	org	3145732
  4078   300004  FF                 	db	255
  4079                           
  4080                           ;Config register CONFIG3H @ 0x300005
  4081                           ;	CCP2 MUX bit
  4082                           ;	CCP2MX = PORTC, CCP2 input/output is multiplexed with RC1
  4083                           ;	PORTB A/D Enable bit
  4084                           ;	PBADEN = ON, PORTB<4:0> pins are configured as analog input channels on Reset
  4085                           ;	Low-Power Timer1 Oscillator Enable bit
  4086                           ;	LPT1OSC = OFF, Timer1 configured for higher power operation
  4087                           ;	MCLR Pin Enable bit
  4088                           ;	MCLRE = ON, MCLR pin enabled; RE3 input pin disabled
  4089   300005                     	org	3145733
  4090   300005  83                 	db	131
  4091                           
  4092                           ;Config register CONFIG4L @ 0x300006
  4093                           ;	Stack Full/Underflow Reset Enable bit
  4094                           ;	STVREN = ON, Stack full/underflow will cause Reset
  4095                           ;	Single-Supply ICSP Enable bit
  4096                           ;	LVP = OFF, Single-Supply ICSP disabled
  4097                           ;	Extended Instruction Set Enable bit
  4098                           ;	XINST = OFF, Instruction set extension and Indexed Addressing mode disabled (Legacy mo
      +                          de)
  4099                           ;	Background Debugger Enable bit
  4100                           ;	DEBUG = 0x1, unprogrammed default
  4101   300006                     	org	3145734
  4102   300006  81                 	db	129
  4103                           
  4104                           ; Padding undefined space
  4105   300007                     	org	3145735
  4106   300007  FF                 	db	255
  4107                           
  4108                           ;Config register CONFIG5L @ 0x300008
  4109                           ;	Code Protection bit
  4110                           ;	CP0 = OFF, Block 0 (000800-001FFFh) not code-protected
  4111                           ;	Code Protection bit
  4112                           ;	CP1 = OFF, Block 1 (002000-003FFFh) not code-protected
  4113                           ;	Code Protection bit
  4114                           ;	CP2 = OFF, Block 2 (004000-005FFFh) not code-protected
  4115                           ;	Code Protection bit
  4116                           ;	CP3 = OFF, Block 3 (006000-007FFFh) not code-protected
  4117   300008                     	org	3145736
  4118   300008  0F                 	db	15
  4119                           
  4120                           ;Config register CONFIG5H @ 0x300009
  4121                           ;	Boot Block Code Protection bit
  4122                           ;	CPB = OFF, Boot block (000000-0007FFh) not code-protected
  4123                           ;	Data EEPROM Code Protection bit
  4124                           ;	CPD = OFF, Data EEPROM not code-protected
  4125   300009                     	org	3145737
  4126   300009  C0                 	db	192
  4127                           
  4128                           ;Config register CONFIG6L @ 0x30000A
  4129                           ;	Write Protection bit
  4130                           ;	WRT0 = OFF, Block 0 (000800-001FFFh) not write-protected
  4131                           ;	Write Protection bit
  4132                           ;	WRT1 = OFF, Block 1 (002000-003FFFh) not write-protected
  4133                           ;	Write Protection bit
  4134                           ;	WRT2 = OFF, Block 2 (004000-005FFFh) not write-protected
  4135                           ;	Write Protection bit
  4136                           ;	WRT3 = OFF, Block 3 (006000-007FFFh) not write-protected
  4137   30000A                     	org	3145738
  4138   30000A  0F                 	db	15
  4139                           
  4140                           ;Config register CONFIG6H @ 0x30000B
  4141                           ;	Configuration Register Write Protection bit
  4142                           ;	WRTC = OFF, Configuration registers (300000-3000FFh) not write-protected
  4143                           ;	Boot Block Write Protection bit
  4144                           ;	WRTB = OFF, Boot block (000000-0007FFh) not write-protected
  4145                           ;	Data EEPROM Write Protection bit
  4146                           ;	WRTD = OFF, Data EEPROM not write-protected
  4147   30000B                     	org	3145739
  4148   30000B  E0                 	db	224
  4149                           
  4150                           ;Config register CONFIG7L @ 0x30000C
  4151                           ;	Table Read Protection bit
  4152                           ;	EBTR0 = OFF, Block 0 (000800-001FFFh) not protected from table reads executed in other
      +                           blocks
  4153                           ;	Table Read Protection bit
  4154                           ;	EBTR1 = OFF, Block 1 (002000-003FFFh) not protected from table reads executed in other
      +                           blocks
  4155                           ;	Table Read Protection bit
  4156                           ;	EBTR2 = OFF, Block 2 (004000-005FFFh) not protected from table reads executed in other
      +                           blocks
  4157                           ;	Table Read Protection bit
  4158                           ;	EBTR3 = OFF, Block 3 (006000-007FFFh) not protected from table reads executed in other
      +                           blocks
  4159   30000C                     	org	3145740
  4160   30000C  0F                 	db	15
  4161                           
  4162                           ;Config register CONFIG7H @ 0x30000D
  4163                           ;	Boot Block Table Read Protection bit
  4164                           ;	EBTRB = OFF, Boot block (000000-0007FFh) not protected from table reads executed in ot
      +                          her blocks
  4165   30000D                     	org	3145741
  4166   30000D  40                 	db	64
  4167                           tosu	equ	0xFFF
  4168                           tosh	equ	0xFFE
  4169                           tosl	equ	0xFFD
  4170                           stkptr	equ	0xFFC
  4171                           pclatu	equ	0xFFB
  4172                           pclath	equ	0xFFA
  4173                           pcl	equ	0xFF9
  4174                           tblptru	equ	0xFF8
  4175                           tblptrh	equ	0xFF7
  4176                           tblptrl	equ	0xFF6
  4177                           tablat	equ	0xFF5
  4178                           prodh	equ	0xFF4
  4179                           prodl	equ	0xFF3
  4180                           indf0	equ	0xFEF
  4181                           postinc0	equ	0xFEE
  4182                           postdec0	equ	0xFED
  4183                           preinc0	equ	0xFEC
  4184                           plusw0	equ	0xFEB
  4185                           fsr0h	equ	0xFEA
  4186                           fsr0l	equ	0xFE9
  4187                           wreg	equ	0xFE8
  4188                           indf1	equ	0xFE7
  4189                           postinc1	equ	0xFE6
  4190                           postdec1	equ	0xFE5
  4191                           preinc1	equ	0xFE4
  4192                           plusw1	equ	0xFE3
  4193                           fsr1h	equ	0xFE2
  4194                           fsr1l	equ	0xFE1
  4195                           bsr	equ	0xFE0
  4196                           indf2	equ	0xFDF
  4197                           postinc2	equ	0xFDE
  4198                           postdec2	equ	0xFDD
  4199                           preinc2	equ	0xFDC
  4200                           plusw2	equ	0xFDB
  4201                           fsr2h	equ	0xFDA
  4202                           fsr2l	equ	0xFD9
  4203                           status	equ	0xFD8

Data Sizes:
    Strings     0
    Constant    0
    Data        2
    BSS         104
    Persistent  0
    Stack       0

Auto Spaces:
    Space          Size  Autos    Used
    COMRAM          126    110     112
    BANK0           128    120     124
    BANK1           256      0     100
    BANK2           256      0       0
    BANK3           256      0       0
    BANK4           256      0       0
    BANK5           244      0       0

Pointer List with Targets:

    GetString@str	PTR unsigned char  size(1) Largest target is 100
		 -> main@str(BANK0[100]), 

    keyboard_input@str	PTR unsigned char  size(1) Largest target is 100
		 -> main@str(BANK0[100]), 

    sp__strcpy	PTR unsigned char  size(1) Largest target is 100
		 -> main@str(BANK0[100]), 

    strcpy@d	PTR unsigned char  size(1) Largest target is 100
		 -> main@str(BANK0[100]), 

    strcpy@dest	PTR unsigned char  size(1) Largest target is 100
		 -> main@str(BANK0[100]), 

    strcpy@src	PTR const unsigned char  size(2) Largest target is 100
		 -> buffer(BANK1[100]), 


Critical Paths under _main in COMRAM

    _main->_set_servo_angle
    _set_servo_angle->___fltol
    ___fltol->___fladd
    ___flmul->___fldiv
    ___fldiv->___xxtofl
    ___fladd->___flmul
    _GetString->_strcpy

Critical Paths under _Lo_ISR in COMRAM

    _Lo_ISR->_MyusartRead
    _MyusartRead->_putch

Critical Paths under _H_ISR in COMRAM

    _H_ISR->_variable_register_changed

Critical Paths under _main in BANK0

    _main->_set_servo_angle

Critical Paths under _Lo_ISR in BANK0

    None.

Critical Paths under _H_ISR in BANK0

    None.

Critical Paths under _main in BANK1

    None.

Critical Paths under _Lo_ISR in BANK1

    None.

Critical Paths under _H_ISR in BANK1

    None.

Critical Paths under _main in BANK2

    None.

Critical Paths under _Lo_ISR in BANK2

    None.

Critical Paths under _H_ISR in BANK2

    None.

Critical Paths under _main in BANK3

    None.

Critical Paths under _Lo_ISR in BANK3

    None.

Critical Paths under _H_ISR in BANK3

    None.

Critical Paths under _main in BANK4

    None.

Critical Paths under _Lo_ISR in BANK4

    None.

Critical Paths under _H_ISR in BANK4

    None.

Critical Paths under _main in BANK5

    None.

Critical Paths under _Lo_ISR in BANK5

    None.

Critical Paths under _H_ISR in BANK5

    None.

Call Graph Tables:

 ---------------------------------------------------------------------------------
 (Depth) Function   	        Calls       Base Space   Used Autos Params    Refs
 ---------------------------------------------------------------------------------
 (0) _main                                               109   109      0    5896
                                            109 COMRAM     1     1      0
                                             12 BANK0    108   108      0
                          _GetString
                         _Initialize
                     _keyboard_input
                    _set_servo_angle
 ---------------------------------------------------------------------------------
 (1) _set_servo_angle                                     17    15      2    5387
                                            104 COMRAM     5     3      2
                                              0 BANK0     12    12      0
                            ___fladd
                            ___fldiv
                            ___flmul
                            ___fltol
                           ___xxtofl
 ---------------------------------------------------------------------------------
 (2) ___xxtofl                                            14    10      4     338
                                             14 COMRAM    14    10      4
 ---------------------------------------------------------------------------------
 (2) ___fltol                                             10     6      4     231
                                             94 COMRAM    10     6      4
                            ___fladd (ARG)
                            ___fldiv (ARG)
                            ___flmul (ARG)
                           ___xxtofl (ARG)
 ---------------------------------------------------------------------------------
 (2) ___flmul                                             25    17      8    1470
                                             53 COMRAM    25    17      8
                            ___fldiv (ARG)
                           ___xxtofl (ARG)
 ---------------------------------------------------------------------------------
 (2) ___fldiv                                             25    17      8    1129
                                             28 COMRAM    25    17      8
                           ___xxtofl (ARG)
 ---------------------------------------------------------------------------------
 (2) ___fladd                                             16     8      8    1988
                                             78 COMRAM    16     8      8
                            ___fldiv (ARG)
                            ___flmul (ARG)
                           ___xxtofl (ARG)
 ---------------------------------------------------------------------------------
 (1) _keyboard_input                                       1     0      1       1
                                             14 COMRAM     1     0      1
 ---------------------------------------------------------------------------------
 (1) _Initialize                                           0     0      0       0
 ---------------------------------------------------------------------------------
 (1) _GetString                                            3     1      2     188
                                             18 COMRAM     3     1      2
                        _ClearBuffer
                             _strcpy
 ---------------------------------------------------------------------------------
 (2) _strcpy                                               4     1      3      75
                                             14 COMRAM     4     1      3
 ---------------------------------------------------------------------------------
 (2) _ClearBuffer                                          2     2      0      68
                                             14 COMRAM     2     2      0
 ---------------------------------------------------------------------------------
 Estimated maximum stack depth 2
 ---------------------------------------------------------------------------------
 (Depth) Function   	        Calls       Base Space   Used Autos Params    Refs
 ---------------------------------------------------------------------------------
 (3) _Lo_ISR                                               5     5      0     176
                                              9 COMRAM     5     5      0
                        _MyusartRead
 ---------------------------------------------------------------------------------
 (4) _MyusartRead                                          2     2      0     176
                                              7 COMRAM     2     2      0
                              _putch
 ---------------------------------------------------------------------------------
 (5) _putch                                                1     1      0      87
                                              6 COMRAM     1     1      0
 ---------------------------------------------------------------------------------
 Estimated maximum stack depth 5
 ---------------------------------------------------------------------------------
 (Depth) Function   	        Calls       Base Space   Used Autos Params    Refs
 ---------------------------------------------------------------------------------
 (6) _H_ISR                                                4     4      0      24
                                              2 COMRAM     4     4      0
                     _button_pressed
          _variable_register_changed
 ---------------------------------------------------------------------------------
 (7) _variable_register_changed                            2     0      2       1
                                              0 COMRAM     2     0      2
 ---------------------------------------------------------------------------------
 (7) _button_pressed                                       0     0      0       0
 ---------------------------------------------------------------------------------
 Estimated maximum stack depth 7
 ---------------------------------------------------------------------------------

 Call Graph Graphs:

 _main (ROOT)
   _GetString
     _ClearBuffer
     _strcpy
   _Initialize
   _keyboard_input
   _set_servo_angle
     ___fladd
       ___fldiv (ARG)
         ___xxtofl (ARG)
       ___flmul (ARG)
         ___fldiv (ARG)
         ___xxtofl (ARG)
       ___xxtofl (ARG)
     ___fldiv
     ___flmul
     ___fltol
       ___fladd (ARG)
       ___fldiv (ARG)
       ___flmul (ARG)
       ___xxtofl (ARG)
     ___xxtofl

 _Lo_ISR (ROOT)
   _MyusartRead
     _putch

 _H_ISR (ROOT)
   _button_pressed
   _variable_register_changed

Address spaces:
Name               Size   Autos  Total    Usage
BIGRAM            1523      0       0      0.0%
BITBANK4           256      0       0      0.0%
BANK4              256      0       0      0.0%
BITBANK3           256      0       0      0.0%
BANK3              256      0       0      0.0%
BITBANK2           256      0       0      0.0%
BANK2              256      0       0      0.0%
BITBANK1           256      0       0      0.0%
BANK1              256      0     100     39.1%
BITBANK5           244      0       0      0.0%
BANK5              244      0       0      0.0%
BITBANK0           128      0       0      0.0%
BANK0              128    120     124     96.9%
BITCOMRAM          126      0       0      0.0%
COMRAM             126    110     112     88.9%
BITBIGSFR_1h        38      0       0      0.0%
BITBIGSFR_1llh      12      0       0      0.0%
BITBIGSFR_5h        10      0       0      0.0%
BITBIGSFRlh         10      0       0      0.0%
BITBIGSFRll          9      0       0      0.0%
BITBIGSFRh           7      0       0      0.0%
BITBIGSFR_2          6      0       0      0.0%
BITBIGSFR_4          3      0       0      0.0%
BITBIGSFR_3          3      0       0      0.0%
BITBIGSFR_5l         2      0       0      0.0%
BITBIGSFR_1lh        1      0       0      0.0%
STACK                0      0       0      0.0%
DATA                 0      0     336      0.0%


Microchip Technology PIC18 Macro Assembler V2.50 build 20240725155939 
Symbol Table                                                                                   Thu Jan 02 14:51:08 2025

                     ___fldiv@aexp 0035                       ___fldiv@bexp 0034  
                     ___fldiv@sign 002D                                 l95 1AC8  
                               bsr 0FE0                                l103 19D8  
                              l114 190C                                l134 141E  
                              l138 1438                                l139 1440  
                              l166 1B70                                l810 0D72  
                              l731 0992                                l811 0D90  
                              l803 0B7C                                l820 0E9E  
                              l812 0DE8                                l717 07EA  
                              l813 0DD6                                l750 0A7A  
                              l734 0904                                l726 0AB6  
                              l718 07D8                                l486 1888  
                              l743 09D2                                l719 079E  
                              l807 0EDC                                l744 09C0  
                              l771 126C                                l851 1530  
                              l844 1498                                l773 10D0  
                              l782 1116                                l783 1134  
                              l847 15F4                                l784 118C  
                              l776 1094                                l785 117A  
                              l866 1B6C                                l858 158C  
                              _PR2 0FCB                                wreg 0FE8  
                     ___flmul@aexp 0047                       ___flmul@bexp 0048  
                 ??_button_pressed 0001                       ___flmul@sign 0042  
                     ___flmul@temp 004D                       ___flmul@prod 0049  
                     ___fltol@exp1 0068                               l2000 10E0  
                             l2002 10F6                               l2010 1126  
                             l2020 11A8                               l2012 1144  
                             l2004 10FC                               l2100 0BE8  
                             l2030 1214                               l2022 11B6  
                             l2014 1172                               l2006 1106  
                             l2110 0C32                               l2102 0C00  
                             l2040 125A                               l2032 122E  
                             l2024 11E0                               l2008 1114  
                             l2120 0C88                               l2112 0C42  
                             l2104 0C0C                               l2042 1260  
                             l2034 1246                               l2018 119C  
                             l2026 11E4                               l2130 0D2C  
                             l2122 0CA4                               l2114 0C4E  
                             l2106 0C18                               l2202 1814  
                             l2300 19D0                               l2044 1262  
                             l2036 1248                               l2028 11FE  
                             l2140 0D82                               l2132 0D3A  
                             l2124 0CB0                               l2116 0C5E  
                             l2108 0C26                               l2060 0AE4  
                             l2052 0AB8                               l2220 1878  
                             l2212 183C                               l2204 181E  
                             l2310 18A2                               l2038 124C  
                             l2150 0E04                               l2142 0DA0  
                             l2134 0D58                               l2126 0CCC  
                             l2118 0C78                               l2070 0B20  
                             l2062 0AF4                               l2054 0AC4  
                             l2214 1848                               l2206 1828  
                             l2230 14A8                               l2320 18C8  
                             l2312 18B0                               l2304 188A  
                             l2160 0E6E                               l2152 0E12  
                             l2144 0DCE                               l2136 0D62  
                             l2128 0CF6                               l2080 0B56  
                             l2072 0B26                               l2064 0B04  
                             l2056 0AD2                               l2216 1858  
                             l2240 14E6                               l2232 14BE  
                             l2224 1444                               l2330 18DA  
                             l2322 18CC                               l2314 18B2  
                             l2306 1892                               l2170 0EC0  
                             l2162 0E88                               l2154 0E3C  
                             l2138 0D70                               l2082 0B66  
                             l2074 0B34                               l2066 0B0A  
                             l2058 0AD4                               l2218 1868  
                             l2250 156E                               l2242 1518  
                             l2226 1454                               l2340 18E4  
                             l2332 18DC                               l2324 18D0  
                             l2316 18B4                               l2308 18A0  
                             l2172 0EC2                               l2164 0E98  
                             l2148 0DF8                               l2156 0E40  
                             l2092 0BB0                               l2084 0B6C  
                             l2076 0B36                               l2068 0B1A  
                             l2180 1784                               l2260 15C4  
                             l2252 157C                               l2244 151A  
                             l2236 14D2                               l2228 1462  
                             l2500 172E                               l1710 1A92  
                             l2350 18EE                               l2342 18E6  
                             l2334 18DE                               l2326 18D6  
                             l2318 18C6                               l2166 0EA2  
                             l2174 0EC8                               l2158 0E5A  
                             l2094 0BBC                               l2086 0B8C  
                             l2078 0B46                               l2190 17DA  
                             l2182 179A                               l2262 15D4  
                             l2254 159A                               l2246 1526  
                             l2238 14DA                               l2502 174A  
                             l1712 1AA0                               l1704 1A8A  
                             l1720 1B44                               l2360 18FA  
                             l2352 18F0                               l2344 18E8  
                             l2336 18E0                               l2328 18D8  
                             l1800 073E                               l2176 0ECC  
                             l2168 0EB2                               l2096 0BC6  
                             l2088 0B9C                               l2192 17EA  
                             l2264 15E2                               l2256 159C  
                             l2248 1562                               l2504 1764  
                             l2440 15FA                               l1714 1AA4  
                             l2290 19B8                               l2370 1904  
                             l2362 18FC                               l2354 18F2  
                             l2346 18EA                               l2338 18E2  
                             l1810 07B8                               l1802 076A  
                             l1730 062E                               l1722 0602  
                             l2098 0BDC                               l2194 17EE  
                             l2186 17AE                               l2266 15E4  
                             l2258 15A0                               l2506 176C  
                             l2450 1622                               l2442 1606  
                             l1716 1AC0                               l2292 19BC  
                             l2284 1976                               l2372 1906  
                             l2364 18FE                               l2356 18F4  
                             l2348 18EC                               l1900 0A78  
                             l1820 07F8                               l1812 07BC  
                             l1804 0786                               l1740 0666  
                             l1732 063E                               l1724 060E  
                             l2196 17FC                               l2188 17D8  
                             l2380 1294                               l2508 177A  
                             l2452 162E                               l2444 161A  
                             l1718 1B40                               l2286 1994  
                             l2374 1908                               l2366 1900  
                             l2358 18F8                               l1910 0AA4  
                             l1902 0A88                               l1830 083A  
                             l1822 0808                               l1814 07CA  
                             l1806 0796                               l1750 0694  
                             l1742 066C                               l1734 064E  
                             l1726 061C                               l2390 13E4  
                             l2382 1334                               l2470 168C  
                             l2454 163E                               l2438 15F6  
                             l2288 19A8                               l2376 190A  
                             l2368 1902                               l1912 0AA6  
                             l1904 0A8E                               l1840 0868  
                             l1832 0848                               l1816 07CC  
                             l1808 07AC                               l1760 06C8  
                             l1752 0696                               l1744 067E  
                             l1736 0650                               l1728 061E  
                             l1920 0EF8                               l2392 13EA  
                             l2384 1368                               l2480 16C4  
                             l2464 1668                               l2456 1644  
                             l2472 16A8                               l2298 19C8  
                             l1906 0A90                               l1850 08D4  
                             l1842 0872                               l1834 0854  
                             l1826 081C                               l1818 07D6  
                             l1770 0702                               l1754 06A6  
                             l1762 06CE                               l1746 0680  
                             l1738 0656                               l1930 0F2C  
                             l1922 0EFA                               l2394 1402  
                             l2386 13BE                               l2378 126E  
                             l2482 16D0                               l2474 16BC  
                             l2466 1674                               l2458 1660  
                             l1908 0A96                               l1852 08E4  
                             l1836 0858                               l1828 082C  
                             l1844 0878                               l1780 0716  
                             l1772 0706                               l1764 06DE  
                             l1756 06B6                               l1748 0686  
                             l1940 0F5C                               l1924 0F0A  
                             l1932 0F32                               l1916 0EDE  
                             l2396 1416                               l2388 13DC  
                             l2484 16E0                               l2468 1684  
                             l1870 0966                               l1862 093E  
                             l1846 089E                               l1854 08F4  
                             l1838 0866                               l1790 072A  
                             l1782 071A                               l1774 070A  
                             l1766 06F0                               l1758 06C6  
                             l1950 0F90                               l1942 0F5E  
                             l1934 0F42                               l1926 0F1A  
                             l1918 0EEA                               l2494 170A  
                             l2486 16E6                               l1880 09A2  
                             l1872 096E                               l1864 0948  
                             l1856 091A                               l1848 08D2  
                             l1792 072E                               l1784 071E  
                             l1776 070E                               l1768 06FE  
                             l1960 0FD4                               l1944 0F6E  
                             l1952 0F96                               l1936 0F48  
                             l1928 0F2A                               l2496 1716  
                             l2488 1702                               l1890 09FC  
                             l1882 09B8                               l1874 0972  
                             l1866 0956                               l1858 092A  
                             l1794 0732                               l1786 0722  
                             l1778 0712                               l1970 0FFC  
                             l1962 0FD8                               l1954 0FA6  
                             l1946 0F7E                               l1938 0F4E  
                             l2498 1726                               l1892 0A36  
                             l1876 0982                               l1868 0958  
                             l1796 0736                               l1788 0726  
                             l1980 104A                               l1956 0FBC  
                             l1948 0F8E                               l1886 09E2  
                             l1894 0A38                               l1878 0984  
                             l1798 073A                               l1990 1092  
                             l1982 105A                               l1974 1010  
                             l1958 0FCC                               l1966 0FEC  
                             l1896 0A48                               l1888 09EE  
                             l1992 109E                               l1984 1060  
                             l1976 102A                               l1968 0FFC  
                             l1898 0A58                               l1994 10BC  
                             l1986 1070                               l1978 103A  
                             l1996 10BE                               l1988 1084  
                             l1998 10CE                               _CREN 7D5C  
                             u2000 0B8C                               u2001 0B88  
                             u2010 0B9C                               u2011 0B98  
                             u1300 1AC0                               u2100 0E5A  
                             u2020 0D16                               u1301 1ABC  
                             u2101 0E56                               u1310 1B6C  
                             u2110 0E88                               u2030 0D70  
                             u1311 1B68                               u2111 0E84  
                             u2031 0D6C                               u1400 06FE  
                             u1320 061C                               u2120 0EC0  
                             u2040 0D90                               u2200 1454  
                             u1401 06FA                               u1321 0618  
                             u2121 0EBC                               u2041 0D8C  
                             u2025 0D0C                               u2201 1450  
                             u1410 076A                               u1330 062E  
                             u2050 0DA0                               u2130 179A  
                             u2210 1462                               u1411 0766  
                             u1331 062A                               u2051 0D9C  
                             u2131 1796                               u2211 145E  
                             u1500 0848                               u1420 0782  
                             u1340 063E                               u2060 0DCE  
                             u2140 17CE                               u2220 14BE  
                             u1501 0844                               u1421 077C  
                             u1341 063A                               u2061 0DCA  
                             u2221 14BA                               _LATA 0F89  
                             u1510 0866                               u1430 0784  
                             u1350 067E                               u2070 0DE4  
                             u2150 17FC                               u2230 1514  
                             u1511 0862                               u1351 067A  
                             u2071 0DE0                               u2151 17F8  
                             u2231 1510                               _LATC 0F8B  
                             u2320 1994                               u1600 09A2  
                             u1520 089E                               u1440 07AC  
                             u1360 0694                               u2080 0DF8  
                             u2160 1810                               u2240 155E  
                             u2321 1990                               u1601 099E  
                             u1521 089A                               u1441 07A8  
                             u1361 0690                               u2081 0DF4  
                             u2161 180C                               u2145 17C4  
                             u2241 155A                               u1610 09B8  
                             u1530 08E4                               u1450 07CA  
                             u1370 06A6                               u2090 0E12  
                             u2170 1838                               u2250 157C  
                             u2330 13DC                               u2410 161A  
                             u1611 09B4                               u1531 08E0  
                             u1451 07C6                               u1371 06A2  
                             u2091 0E0E                               u2171 1834  
                             u2251 1578                               u2331 13D8  
                             u2411 1616                               u1700 0AA4  
                             u1620 09CE                               u1540 091A  
                             u1460 07EA                               u1380 06B6  
                             u2180 1858                               u2260 158C  
                             u2340 1438                               u2420 1660  
                             u1701 0AA0                               u1621 09CA  
                             u1541 0916                               u1461 07E6  
                             u1381 06B2                               u2181 1854  
                             u2261 1588                               u2341 1434  
                             u2421 165C                               u1630 09E2  
                             u1550 092A                               u1470 07F8  
                             u1390 06F0                               u1710 0EF8  
                             u2190 1868                               u2270 159A  
                             u2430 16A8                               u1631 09DE  
                             u1551 0926                               u1471 07F4  
                             u1391 06EC                               u1711 0EF4  
                             u2191 1864                               u2271 1596  
                             u2431 16A4                               u1640 09FC  
                             u1560 0956                               u1480 0808  
                             u1800 1092                               u1720 0F0A  
                             u2280 15D4                               u2440 16BC  
                             u1641 09F8                               u1561 0952  
                             u1481 0804                               u1801 108E  
                             u1721 0F06                               u2281 15D0  
                             u2441 16B8                               u1650 0A36  
                             u1570 0966                               u1490 083A  
                             u1810 10BC                               u1730 0F1A  
                             u2290 15E2                               u2450 1702  
                             u1651 0A32                               u1571 0962  
                             u1491 0836                               u1811 10B8  
                             u1731 0F16                               u2291 15DE  
                             u2451 16FE                               u2507 167A  
                             u1660 0A48                               u1580 0982  
                             u1900 11B6                               u1820 10E0  
                             u1740 0F5C                               u2460 174A  
                             u1661 0A44                               u1581 097E  
                             u1901 11B2                               u1821 10DC  
                             u1741 0F58                               u2461 1746  
                             u2517 16D6                               u1670 0A58  
                             u1590 0992                               u1910 11FE  
                             u1830 10F6                               u1750 0F6E  
                             u2470 1764                               u1671 0A54  
                             u1591 098E                               u1911 11FA  
                             u1831 10F2                               u1751 0F6A  
                             u2471 1760                               u2527 171C  
                             u1680 0A78                               u1920 122E  
                             u1840 1114                               u1760 0F7E  
                             u2480 177A                               u1681 0A74  
                             u1921 122A                               u1841 1110  
                             u1761 0F7A                               u2537 1418  
                             u2481 1776                               u1690 0A88  
                             u1930 125A                               u1850 1134  
                             u1770 0FBC                               u1691 0A84  
                             u1931 1256                               u1851 1130  
                             u1771 0FB8                               u1860 1144  
                             u1780 0FFC                               u1940 0AD2  
                             u1861 1140                               u1781 0FF8  
                             u1941 0ACE                               u1870 1172  
                             u1790 1070                               u1950 0AE4  
                             u1871 116E                               u1791 106C  
                             u1951 0AE0                               u1880 1188  
                             u1960 0AF4                               u1881 1184  
                             u1961 0AF0                               u2497 1634  
                             u1890 119C                               u1970 0B34  
                             u1891 1198                               u1971 0B30  
                             u1980 0B46                               u1981 0B42  
                             u1990 0B56                               u1991 0B52  
                             _RCIF 7CF5                               i1l80 1A00  
                             i1l90 1A3A                               i1l83 1A12  
                             i1l87 1A28                               i1l89 1A36  
                             i1l99 1A88                               _main 15F6  
                             _mode 00FA                               fsr1h 0FE2  
                             fsr2h 0FDA                               indf1 0FE7  
                             indf2 0FDF                               fsr1l 0FE1  
                             fsr2l 0FD9                               btemp 0071  
                             prodh 0FF4                               prodl 0FF3  
                             start 006C                    ___fldiv@new_exp 002E  
                  MyusartRead@data 0009                       ___param_bank 0000  
       ?_variable_register_changed 0001                      ___fltol@sign1 0067  
                  __end_of___fladd 0AB8                              ?_main 0001  
                  __end_of___fldiv 126E                    __end_of___flmul 0EDE  
                  __end_of___fltol 188A                              i1l111 0054  
                            i2l160 1B06                              i2l152 1972  
                            i2l163 1B72                              _RCREG 0FAE  
                            _H_ISR 0008                              _SPBRG 0FAF  
                            _TRISA 0F92                              _TRISB 0F93  
                            _TRISC 0F94                              _TXREG 0FAD  
                            _putch 19DA                    _set_servo_angle 126E  
                            main@x 00F0                        _ClearBuffer 1A8A  
                            tablat 0FF5                              ttemp5 0072  
                            ttemp6 0075                              ttemp7 0079  
                            status 0FD8                              wtemp8 0072  
                  __initialization 1B08                       __end_of_main 1784  
                       _Initialize 188A                             ??_main 006E  
                    __activetblptr 0000                             ?_H_ISR 0001  
                           _ADRESH 0FC4                             _ADRESL 0FC3  
                           _CCPR1L 0FBE                             ?_putch 0001  
                           i1l2410 004A                             i1l1700 1A0E  
                           i1l2412 0050                             i1l1702 1A20  
                           i1l2270 1A3C                             i1l2406 002E  
                           i1l2280 1A7E                             i1l2272 1A40  
                           i1l2408 003C                             i1l2282 1A82  
                           i1l2274 1A58                             i1l2278 1A6E  
                           i1l1696 19DC                             i1l1698 19EE  
                           i2l2400 1ADE                             i2l2402 1AEA  
                           i2l2404 1AFE                             i2l2420 1910  
                           i2l2422 191E                             i2l2430 194E  
                           i2l2432 195C                             i2l2424 1930  
                           i2l2434 1960                             i2l2426 193C  
                           i2l2436 1970                             i2l2428 193E  
                           i2l2398 1ACA              set_servo_angle@target 0088  
                 __end_of___xxtofl 15F6                             _Lo_ISR 0018  
                        ??___fladd 0057                          ??___fldiv 0025  
                        ??___flmul 003E                          ??___fltol 0063  
              _current_servo_angle 00F8                             _buffer 0100  
                keyboard_input@str 000F                             clear_0 1B26  
                           isa$std 0001                             _strcpy 1B40  
          __end_of_set_servo_angle 1442                       __mediumconst 0000  
                           tblptrh 0FF7                             tblptrl 0FF6  
                           tblptru 0FF8                       ___xxtofl@arg 0019  
                     ___xxtofl@exp 0018                       ___xxtofl@val 000F  
                       __accesstop 0080            __end_of__initialization 1B36  
                    ___rparam_used 0001                         ___fltol@f1 005F  
                    __end_of_H_ISR 1976                  __end_of_GetString 19DA  
                   __pcstackCOMRAM 0001                       __pidataBANK0 1B6E  
                      ?_Initialize 0001                      __end_of_putch 1A3C  
                          ??_H_ISR 0003                      ??_MyusartRead 0008  
                          ??_putch 0007                         __pbssBANK0 00F8  
                       __pbssBANK1 0100                            ?_Lo_ISR 0001  
      ??_variable_register_changed 0003                            ?_strcpy 000F  
           set_servo_angle@current 008A                          ?___xxtofl 000F  
                 ?_set_servo_angle 0069                       ?_ClearBuffer 0001  
              __end_of_MyusartRead 1A8A                            __Hparam 0000  
                          __Lparam 0000                            ___fladd 0602  
                          ___fldiv 0EDE                            ___flmul 0AB8  
                          ___fltol 1784                       __psmallconst 0600  
                          __pcinit 1B08                            __ramtop 0600  
                          __ptext0 15F6                            __ptext1 126E  
                          __ptext2 1442                            __ptext3 1784  
                          __ptext4 0AB8                            __ptext5 0EDE  
                          __ptext6 0602                            __ptext7 1B70  
                          __ptext8 188A                            __ptext9 1976  
                        _T2CONbits 0FCA                         ??___xxtofl 0013  
        _variable_register_changed 1B72                            main@str 008C  
                   __pintcode_body 190E               end_of_initialization 1B36  
                          int_func 190E                          _RCSTAbits 0FAB  
                          postinc0 0FEE                            postinc2 0FDE  
                          strcpy@d 0012               _set_servo_angle$1584 0080  
             _set_servo_angle$1585 0084                        ___fladd@grs 005E  
                    ___xxtofl@sign 0017                          _TRISAbits 0F92  
                        _TRISCbits 0F94                        _MyusartRead 1A3C  
                      ___fldiv@grs 0030                        ___fldiv@rem 0029  
                      ___flmul@grs 0043                        _CCP1CONbits 0FBD  
                        _TXSTAbits 0FAC                     __end_of_Lo_ISR 006C  
                        _GetString 1976                       ??_Initialize 000F  
                      _BAUDCONbits 0FB8                     __end_of_strcpy 1B6E  
              start_initialization 1B08                       ClearBuffer@i 000F  
               __end_of_Initialize 190E               set_servo_angle@angle 0069  
                         ??_Lo_ISR 000A                        __pdataBANK0 00FA  
                       ?_GetString 0013                     _keyboard_input 1B70  
                         ??_strcpy 0012                          ___fladd@a 0053  
                        ___fladd@b 004F                          ___fldiv@a 0021  
                        ___fldiv@b 001D                          ___flmul@a 003A  
                        ___flmul@b 0036                        __pbssCOMRAM 006F  
                    __pcstackBANK0 0080                     _button_pressed 1ACA  
                        __pintcode 0008                           ?___fladd 004F  
                         ?___fldiv 001D                           ?___flmul 0036  
                         ?___fltol 005F             __end_of_keyboard_input 1B72  
                      __pintcodelo 0018                         H_ISR@value 0005  
                      __smallconst 0600             __end_of_button_pressed 1B08  
                         _IPR1bits 0F9F                           _PIE1bits 0F9D  
                         i1u125_20 19EE                           i1u125_21 19EA  
                         i1u126_20 1A00                           i1u230_20 1A58  
                         i1u126_21 19FC                           i1u230_21 1A54  
                         i1u127_20 1A0E                           i1u231_20 1A6A  
                         i1u127_21 1A0A                           i1u231_21 1A66  
                         i1u128_20 1A20                           i1u128_21 1A1C  
                         i1u129_20 1A36                           i1u129_21 1A32  
                         i1u237_20 003C                           i1u237_21 0038  
                         i1u238_20 004A                           i1u238_21 0046  
                         i2u240_40 195C                           i2u240_41 1958  
                         i2u235_40 1ADE                           i2u235_41 1ADA  
                         i2u236_40 1AFE                           i2u236_41 1AFA  
                         i2u254_47 1944                           i2u239_40 191E  
                         i2u239_41 191A                           i2u255_47 1966  
                         _PIR1bits 0F9E                        _buffer_size 006F  
__end_of_variable_register_changed 1B74                           _RCONbits 0FD0  
                      ??_GetString 0015                    ?_keyboard_input 000F  
                       _ADCON0bits 0FC2                         _ADCON1bits 0FC1  
                       _ADCON2bits 0FC0                          main@x_926 00F2  
                        main@x_927 00F4                          main@x_928 00F6  
                     ?_MyusartRead 0001                    ?_button_pressed 0001  
                         __Hrparam 0000                           __Lrparam 0000  
                         ___xxtofl 1442                           __ptext10 1B40  
                         __ptext11 1A8A                           __ptext13 1A3C  
                         __ptext14 19DA                           __ptext16 1B72  
                         __ptext17 1ACA                       GetString@str 0013  
                       strcpy@dest 000F     variable_register_changed@value 0001  
                ??_set_servo_angle 006B                           isa$xinst 0000  
                         int$flags 0071                          putch@data 0007  
                       _INTCONbits 0FF2                      ??_ClearBuffer 000F  
                         intlevel1 0000                           intlevel2 0000  
                        strcpy@src 0010                         _OSCCONbits 0FD3  
                    ___fladd@signs 005B                       ___fladd@aexp 005C  
                     ___fladd@bexp 005D                __end_of_ClearBuffer 1ACA  
                 ??_keyboard_input 0010  
